-----BEGIN RSA PRIVATE KEY-----
MIICXQIBAAKBgQCtK2P5xYt+8obEG7yCIBnCcGakOQD9hG/ffgzoWynpLQz/6dVH
E9uikuNYF20GNXdwbMuSGpfihWGvkWpY5vvcEjVP7XxqnYYvDlDzYaNNGhs+jM4o
7+DOPXNUnfN9ra4ANuIUk6Il1Bim+tOqYvJzWxFUTbpDQ2+53fniCzzsUQIDAQAB
AoGAVDdF57KqpJJN+BGFG8OAw47mW/ddA+3kekxS+q1bNIs0R0Dw+CAwMGA/MBg0
bVCTRZmjZuqH8yHq3/dYQOQUl6UMN60lTgc2D8C7f7tfiSzJTRlj0SdTOWSIegIz
6yWTv/rN7srCfb3Moav8O1VdUpa6rT7P2rCZmw6JzcjtCgECQQDggn+EhLapHQ3A
aAq2QTVZzKvkdzdfLKsjfG9OFwpIxzDxuGDLZUw7bXbYqcEtCqyxr6+EqIAr1B2W
a2Ct7b6LAkEAxXVpI1ZT+5MZJ0PkoV1uA3/4rRZYSXjCAtEf1B5mVoRSwGy1o9ug
BQ0etv/05HyICvIPwuyLkgwYW9KltkhYEwJBAJdm6d/QL+5z7WYnw7GM4BGi+Pil
fO3uDatsqxMabpEN42/fS0dfFL2u4ErUj7V0UWmydMcdavIjpaBe4V/pyGkCQQCM
JMLUU8cTfNmTZrp0VM1qKn+iyYMr0ktQmIBQmqrjqNLaw80/WPd/3kn4dD2plUEx
E5BgNmbw5yi6swzuDPaFAkAEU1cSR0pHTKp59+blKuSlkwfIgW1b+DkRvy7GVCss
IGETgcFH0nsrAyIyCIXYwOAjK9ChSZMzT4zaF+FguxJA
-----END RSA PRIVATE KEY-----
Certificate:
    Data:
        Version: 3 (0x2)
        Serial Number: 1 (0x1)
    Signature Algorithm: sha256WithRSAEncryption
        Issuer: C=KR, CN=gilgil
        Validity
            Not Before: Mar  1 00:00:00 2014 GMT
            Not After : Feb 27 00:00:00 2024 GMT
        Subject: C=KR, CN=api.bing.com
        Subject Public Key Info:
            Public Key Algorithm: rsaEncryption
                Public-Key: (1024 bit)
                Modulus:
                    00:ad:2b:63:f9:c5:8b:7e:f2:86:c4:1b:bc:82:20:
                    19:c2:70:66:a4:39:00:fd:84:6f:df:7e:0c:e8:5b:
                    29:e9:2d:0c:ff:e9:d5:47:13:db:a2:92:e3:58:17:
                    6d:06:35:77:70:6c:cb:92:1a:97:e2:85:61:af:91:
                    6a:58:e6:fb:dc:12:35:4f:ed:7c:6a:9d:86:2f:0e:
                    50:f3:61:a3:4d:1a:1b:3e:8c:ce:28:ef:e0:ce:3d:
                    73:54:9d:f3:7d:ad:ae:00:36:e2:14:93:a2:25:d4:
                    18:a6:fa:d3:aa:62:f2:73:5b:11:54:4d:ba:43:43:
                    6f:b9:dd:f9:e2:0b:3c:ec:51
                Exponent: 65537 (0x10001)
        X509v3 extensions:
            X509v3 Basic Constraints: 
                CA:FALSE
            Netscape Comment: 
                OpenSSL Generated Certificate
            X509v3 Subject Key Identifier: 
                2C:69:88:FC:51:29:D2:5F:EB:97:83:08:36:AF:2E:35:E4:2C:20:6B
            X509v3 Authority Key Identifier: 
                DirName:/C=KR/CN=gilgil
                serial:BC:FE:EF:E9:4A:BC:63:F0

    Signature Algorithm: sha256WithRSAEncryption
         26:3e:1c:da:c2:2b:0d:6e:43:21:c9:d9:db:34:38:c7:07:21:
         a5:10:65:87:bf:41:cd:94:6b:fc:87:ae:35:bb:e1:a0:78:20:
         79:7f:d0:41:5d:97:2b:cb:ba:90:b5:70:4f:c6:b9:16:15:7e:
         a2:bd:01:8c:04:a1:a9:c9:c2:6d:06:67:d0:a5:62:00:96:5d:
         60:be:c8:27:e2:4a:46:39:ab:ef:30:e2:42:ff:3a:4f:ba:48:
         f3:be:a4:4b:af:53:c8:da:87:b7:56:1c:4a:fc:fb:42:5c:9c:
         e8:60:21:0b:33:9d:94:ff:e2:2e:45:3d:20:ff:dc:32:3a:93:
         1e:c4
-----BEGIN CERTIFICATE-----
MIICUjCCAbugAwIBAgIBATANBgkqhkiG9w0BAQsFADAeMQswCQYDVQQGEwJLUjEP
MA0GA1UEAwwGZ2lsZ2lsMCIYDzIwMTQwMzAxMDAwMDAwWhgPMjAyNDAyMjcwMDAw
MDBaMCQxCzAJBgNVBAYTAktSMRUwEwYDVQQDDAxhcGkuYmluZy5jb20wgZ8wDQYJ
KoZIhvcNAQEBBQADgY0AMIGJAoGBAK0rY/nFi37yhsQbvIIgGcJwZqQ5AP2Eb99+
DOhbKektDP/p1UcT26KS41gXbQY1d3Bsy5Ial+KFYa+Raljm+9wSNU/tfGqdhi8O
UPNho00aGz6Mzijv4M49c1Sd832trgA24hSToiXUGKb606pi8nNbEVRNukNDb7nd
+eILPOxRAgMBAAGjgZUwgZIwCQYDVR0TBAIwADAsBglghkgBhvhCAQ0EHxYdT3Bl
blNTTCBHZW5lcmF0ZWQgQ2VydGlmaWNhdGUwHQYDVR0OBBYEFCxpiPxRKdJf65eD
CDavLjXkLCBrMDgGA1UdIwQxMC+hIqQgMB4xCzAJBgNVBAYTAktSMQ8wDQYDVQQD
DAZnaWxnaWyCCQC8/u/pSrxj8DANBgkqhkiG9w0BAQsFAAOBgQAmPhzawisNbkMh
ydnbNDjHByGlEGWHv0HNlGv8h641u+GgeCB5f9BBXZcry7qQtXBPxrkWFX6ivQGM
BKGpycJtBmfQpWIAll1gvsgn4kpGOavvMOJC/zpPukjzvqRLr1PI2oe3VhxK/PtC
XJzoYCELM52U/+IuRT0g/9wyOpMexA==
-----END CERTIFICATE-----
