-----BEGIN RSA PRIVATE KEY-----
MIICXAIBAAKBgQD1jYD1NqKGSAhMEy6B3Kljr39rLCo7S7PvLWue6if8MWh4aUoH
7czQKnOlnYXvq7YTd16CLlmMeGgdhQXIRU8DVvrTW60sfbnn2qmw5ZtrvwZ+UadK
aeZ1E6Af0FBRXokwqfsaRT65ErEoxn+dKo0wrwPwuehqjS6nKsjZLKxAEwIDAQAB
AoGACB6IsBMBZr1FAPb1Z7fbJf+sj+ei8dj79yGiWFvXvKAJm0mn+AEl75AnyMcf
oaAk4hnlVxqfPWTR1IAMg+W+ygXmg2tgwXRTy3RyGTsMMXlXrLec5pR3E9eyg/a9
WAnkyBEZkCvRCr4WtGhK1RVwBCtfovWhCLKZ1AOXdjU4I/kCQQD8WroIWFvU9Zwo
6yVWH8LqLiytcTYs1mooDnKFcMpu73/Iv65zKkcGkqkMtg0TebsYYRB7FyUzOfZI
LiBqFHl9AkEA+RmfbB5+EpY/nbbJVAK+vcp9b5FgCdUOfakbmd6bsyLZ4wxAxj26
GDv5Z+QZVPegMHjHwoodWLZcXlq3QxVUzwJBAKFparqxwbNaklL97TjEQglGFZ+u
3UcasnYCn6/IsEL7ABIowO266glDP8v4mi6N22VBmKgS6uF0Ppp2npcbl4UCQET3
rCUCOEOrJ8fh0NIaxHbFtn8KT/3I6G8wP/0VHiS11H/BZ7m7Y2fMSxxRkhXtTYO+
HQimtsNWEjLpiO3g3Q8CQGMlW8k9jyYQGovDidyl+/VFfzIS6wwMD9vaVftf5YkK
evAqXYfQnyT5FX6LnUr7+qkCn1zmXT+MgJJ7YlZk7j0=
-----END RSA PRIVATE KEY-----
Certificate:
    Data:
        Version: 3 (0x2)
        Serial Number: 3 (0x3)
    Signature Algorithm: sha256WithRSAEncryption
        Issuer: C=KR, CN=gilgil
        Validity
            Not Before: Mar  1 00:00:00 2014 GMT
            Not After : Feb 27 00:00:00 2024 GMT
        Subject: C=KR, CN=array711-prod.do.dsp.mp.microsoft.com
        Subject Public Key Info:
            Public Key Algorithm: rsaEncryption
                Public-Key: (1024 bit)
                Modulus:
                    00:f5:8d:80:f5:36:a2:86:48:08:4c:13:2e:81:dc:
                    a9:63:af:7f:6b:2c:2a:3b:4b:b3:ef:2d:6b:9e:ea:
                    27:fc:31:68:78:69:4a:07:ed:cc:d0:2a:73:a5:9d:
                    85:ef:ab:b6:13:77:5e:82:2e:59:8c:78:68:1d:85:
                    05:c8:45:4f:03:56:fa:d3:5b:ad:2c:7d:b9:e7:da:
                    a9:b0:e5:9b:6b:bf:06:7e:51:a7:4a:69:e6:75:13:
                    a0:1f:d0:50:51:5e:89:30:a9:fb:1a:45:3e:b9:12:
                    b1:28:c6:7f:9d:2a:8d:30:af:03:f0:b9:e8:6a:8d:
                    2e:a7:2a:c8:d9:2c:ac:40:13
                Exponent: 65537 (0x10001)
        X509v3 extensions:
            X509v3 Basic Constraints: 
                CA:FALSE
            Netscape Comment: 
                OpenSSL Generated Certificate
            X509v3 Subject Key Identifier: 
                5D:90:88:8A:E1:BB:97:D9:8F:EC:21:0F:09:27:AB:28:E8:72:87:45
            X509v3 Authority Key Identifier: 
                DirName:/C=KR/CN=gilgil
                serial:BC:FE:EF:E9:4A:BC:63:F0

    Signature Algorithm: sha256WithRSAEncryption
         36:32:16:6b:d2:96:c5:02:1e:16:e6:d5:e7:c3:d7:46:e9:f6:
         62:c1:38:53:7f:fe:1a:6e:94:d4:09:1d:a9:eb:e4:c0:d2:99:
         4c:5d:d0:00:b3:59:41:17:bf:a6:e5:9a:96:3e:eb:54:3b:1b:
         9f:57:66:ae:be:be:b6:13:e2:12:de:29:8b:e9:b8:a1:41:f1:
         ee:da:09:bb:b7:3d:07:2d:61:87:79:ba:4d:72:eb:dc:d8:45:
         53:c5:e0:ba:d2:ce:9b:3e:68:67:10:ed:2f:a1:39:3c:b5:98:
         5b:fc:10:52:54:8d:31:b0:2c:47:6d:d0:f2:5a:23:d4:6d:a7:
         6d:bf
-----BEGIN CERTIFICATE-----
MIICazCCAdSgAwIBAgIBAzANBgkqhkiG9w0BAQsFADAeMQswCQYDVQQGEwJLUjEP
MA0GA1UEAwwGZ2lsZ2lsMCIYDzIwMTQwMzAxMDAwMDAwWhgPMjAyNDAyMjcwMDAw
MDBaMD0xCzAJBgNVBAYTAktSMS4wLAYDVQQDDCVhcnJheTcxMS1wcm9kLmRvLmRz
cC5tcC5taWNyb3NvZnQuY29tMIGfMA0GCSqGSIb3DQEBAQUAA4GNADCBiQKBgQD1
jYD1NqKGSAhMEy6B3Kljr39rLCo7S7PvLWue6if8MWh4aUoH7czQKnOlnYXvq7YT
d16CLlmMeGgdhQXIRU8DVvrTW60sfbnn2qmw5ZtrvwZ+UadKaeZ1E6Af0FBRXokw
qfsaRT65ErEoxn+dKo0wrwPwuehqjS6nKsjZLKxAEwIDAQABo4GVMIGSMAkGA1Ud
EwQCMAAwLAYJYIZIAYb4QgENBB8WHU9wZW5TU0wgR2VuZXJhdGVkIENlcnRpZmlj
YXRlMB0GA1UdDgQWBBRdkIiK4buX2Y/sIQ8JJ6so6HKHRTA4BgNVHSMEMTAvoSKk
IDAeMQswCQYDVQQGEwJLUjEPMA0GA1UEAwwGZ2lsZ2lsggkAvP7v6Uq8Y/AwDQYJ
KoZIhvcNAQELBQADgYEANjIWa9KWxQIeFubV58PXRun2YsE4U3/+Gm6U1Akdqevk
wNKZTF3QALNZQRe/puWalj7rVDsbn1dmrr6+thPiEt4pi+m4oUHx7toJu7c9By1h
h3m6TXLr3NhFU8XgutLOmz5oZxDtL6E5PLWYW/wQUlSNMbAsR23Q8loj1G2nbb8=
-----END CERTIFICATE-----
