-----BEGIN RSA PRIVATE KEY-----
MIICXQIBAAKBgQCuHv7Al13av3cu2NZODn1TO0y1vP4zAJyx722Xkemkof1V6BqF
2zDEIhZoDbb24TSch43wRSAg5c0XbhwtItdOW6REZrGkdtpjLt+t4F9FKYZd7YnY
4+N6a5E75N208Sy8bbb93l4iFPkqHs03yDKFsRSHTVTMo6t7EnPfUxWc3QIDAQAB
AoGAO2bLljyNglELgenrwpli3ABA/UdKmW++BV4fTzQyNz4kRSh30+6hRmgyqLD1
GGhgIH6GR8/tVAvR2gpwhl16gerZHv6huG0WLEVb2qvMiJq/qTmzvc+F1oNJ8Ftp
xuEXOY/NCdpRogIlZVc8R2Q/yhyYgaxgWRpdDcuRqx349wECQQDZH+KvEoe6F4os
L69ZX7MANZXQKq3/Z5e7Z1mjV+WFkNxn+8O3d7A75P2p0pGHSBEjXoDipDUn4ecN
9zMle979AkEAzUwA5ggkj1fpY7DXWWnSnEVa18Rv8da08Ztbloa5D1fglUj7jO0J
RA1JX12jqOobjzch9JgGoeQvr2V9ZbpLYQJBALBhla2xOO80pjtk9WZ+NpSp8yzr
LvQ3PGyx9YCbK8pINrSGMqT9Jv5Q9LwbYbtrEPkRkVQMH15pxmBy+2qs6SUCQQCQ
cCHNtfrq8yIcZoYMvXxVQCJ63hUYpEPoHLLig+Td26kBvzhkXT0AqQxvUTVdGWDM
cTCtouw/qIi4MYJ5OQnhAkBOP1MNixWztphAVr5/8OPu75TEYPVeIZiOWD2otHPY
JB2tvi6o+hqLC3o1YfCn4nw32TsVOx8k4Qwq5dVvQjuC
-----END RSA PRIVATE KEY-----
Certificate:
    Data:
        Version: 3 (0x2)
        Serial Number: 5 (0x5)
    Signature Algorithm: sha256WithRSAEncryption
        Issuer: C=KR, CN=gilgil
        Validity
            Not Before: Mar  1 00:00:00 2014 GMT
            Not After : Feb 27 00:00:00 2024 GMT
        Subject: C=KR, CN=c.bing.com
        Subject Public Key Info:
            Public Key Algorithm: rsaEncryption
                Public-Key: (1024 bit)
                Modulus:
                    00:ae:1e:fe:c0:97:5d:da:bf:77:2e:d8:d6:4e:0e:
                    7d:53:3b:4c:b5:bc:fe:33:00:9c:b1:ef:6d:97:91:
                    e9:a4:a1:fd:55:e8:1a:85:db:30:c4:22:16:68:0d:
                    b6:f6:e1:34:9c:87:8d:f0:45:20:20:e5:cd:17:6e:
                    1c:2d:22:d7:4e:5b:a4:44:66:b1:a4:76:da:63:2e:
                    df:ad:e0:5f:45:29:86:5d:ed:89:d8:e3:e3:7a:6b:
                    91:3b:e4:dd:b4:f1:2c:bc:6d:b6:fd:de:5e:22:14:
                    f9:2a:1e:cd:37:c8:32:85:b1:14:87:4d:54:cc:a3:
                    ab:7b:12:73:df:53:15:9c:dd
                Exponent: 65537 (0x10001)
        X509v3 extensions:
            X509v3 Basic Constraints: 
                CA:FALSE
            Netscape Comment: 
                OpenSSL Generated Certificate
            X509v3 Subject Key Identifier: 
                99:81:2E:86:7E:88:4B:28:97:0A:76:86:74:63:AB:E4:4D:09:CF:D7
            X509v3 Authority Key Identifier: 
                DirName:/C=KR/CN=gilgil
                serial:BC:FE:EF:E9:4A:BC:63:F0

    Signature Algorithm: sha256WithRSAEncryption
         7f:e2:10:bb:82:a4:94:a1:fc:55:75:e0:a6:c7:1f:0b:74:e7:
         df:36:f6:81:5a:91:28:ff:8b:b2:47:34:73:9e:16:86:eb:0c:
         fe:58:81:08:e2:35:e6:e9:19:81:1f:8d:64:46:f3:3a:e2:8e:
         5f:0d:51:70:f5:ca:a9:12:7d:0c:2b:79:9c:56:24:85:aa:d6:
         58:a2:e6:0a:62:ad:90:3d:a5:ea:6e:9c:4f:14:bd:f0:66:a2:
         ba:99:d5:4c:c6:c4:d0:ed:14:b7:2f:a5:0a:dc:dd:6f:e7:93:
         81:50:cd:38:a6:90:09:7b:2a:23:68:8b:7f:18:a3:2c:7f:f1:
         e7:fa
-----BEGIN CERTIFICATE-----
MIICUDCCAbmgAwIBAgIBBTANBgkqhkiG9w0BAQsFADAeMQswCQYDVQQGEwJLUjEP
MA0GA1UEAwwGZ2lsZ2lsMCIYDzIwMTQwMzAxMDAwMDAwWhgPMjAyNDAyMjcwMDAw
MDBaMCIxCzAJBgNVBAYTAktSMRMwEQYDVQQDDApjLmJpbmcuY29tMIGfMA0GCSqG
SIb3DQEBAQUAA4GNADCBiQKBgQCuHv7Al13av3cu2NZODn1TO0y1vP4zAJyx722X
kemkof1V6BqF2zDEIhZoDbb24TSch43wRSAg5c0XbhwtItdOW6REZrGkdtpjLt+t
4F9FKYZd7YnY4+N6a5E75N208Sy8bbb93l4iFPkqHs03yDKFsRSHTVTMo6t7EnPf
UxWc3QIDAQABo4GVMIGSMAkGA1UdEwQCMAAwLAYJYIZIAYb4QgENBB8WHU9wZW5T
U0wgR2VuZXJhdGVkIENlcnRpZmljYXRlMB0GA1UdDgQWBBSZgS6GfohLKJcKdoZ0
Y6vkTQnP1zA4BgNVHSMEMTAvoSKkIDAeMQswCQYDVQQGEwJLUjEPMA0GA1UEAwwG
Z2lsZ2lsggkAvP7v6Uq8Y/AwDQYJKoZIhvcNAQELBQADgYEAf+IQu4KklKH8VXXg
pscfC3Tn3zb2gVqRKP+Lskc0c54WhusM/liBCOI15ukZgR+NZEbzOuKOXw1RcPXK
qRJ9DCt5nFYkharWWKLmCmKtkD2l6m6cTxS98GaiupnVTMbE0O0Uty+lCtzdb+eT
gVDNOKaQCXsqI2iLfxijLH/x5/o=
-----END CERTIFICATE-----
