-----BEGIN RSA PRIVATE KEY-----
MIICWwIBAAKBgQDCesg15No33q055H89UneMT4xuCC0Ih4kxGxfurNB8gA5t36aa
7PoDbnqFtUP2zWTe7FZbYLU9FSyS3MrjDqaBkK6FvxYTdl80PmgA8oPiSFX2pvJY
eewnVCW4T5eBUCe/nHKeYiVaVujsr7Vck4YvFEgzdqOX82JF6+u8Lv0+NQIDAQAB
AoGADppbmDhj7lgJF9TBfSBJG78JY2W3w/Exav+Gz4Qob4DKFJP7lZx/tWxBRPL0
dH69uUNzxI7BbSG+5BQyI9SAyg4E9MZE3hyHAPSQboDyeV5VDG3N+Gc1WsnATZsA
B6T2i57JUozW8XlYsqt8XwWiSo/BCJWJ/BC8+RaFSfsLMq0CQQD9QIbxgnmPrtc5
G0hTeWNBWgGybjyHR+I7pqClnCyN9SSebOZfWaYKLBLGDhNveOC0QzdEtMr24xNQ
v89SLk93AkEAxJb/1O4mzttcQ0orJ2RFCGtL1uURONT2btkftiyCpG5mfCBjd4He
bCZnJIpIdtrIXTs596N+V/MPQe8whplCswJAJy/98Y8L+mTGnuqO1YPaDPm9e3u9
V/2Sj0JoZ1f0OP8u7GjTePupSrepLAZvkXc15g7klXgYU/2tNniHvyK1XwJAC+u0
G69NPyHiGFp4/2x/GyGWebNuNeoD/3i/CYbtbRccs84q+eYwHJK/kmGoPzzJBY4/
15pcYOzmMfNVF/RXLQJAOJ5fp2cbJgMBWPkriI6DFvgEQJmDlDtW+JuEUiLZr/CZ
VQ5EGBlh8wY15Zm8xymKriOgmbAaIt8G2prQR2r04Q==
-----END RSA PRIVATE KEY-----
Certificate:
    Data:
        Version: 3 (0x2)
        Serial Number: 1 (0x1)
    Signature Algorithm: sha256WithRSAEncryption
        Issuer: C=KR, CN=gilgil
        Validity
            Not Before: Mar  1 00:00:00 2014 GMT
            Not After : Feb 27 00:00:00 2024 GMT
        Subject: C=KR, CN=c.go-mpulse.net
        Subject Public Key Info:
            Public Key Algorithm: rsaEncryption
                Public-Key: (1024 bit)
                Modulus:
                    00:c2:7a:c8:35:e4:da:37:de:ad:39:e4:7f:3d:52:
                    77:8c:4f:8c:6e:08:2d:08:87:89:31:1b:17:ee:ac:
                    d0:7c:80:0e:6d:df:a6:9a:ec:fa:03:6e:7a:85:b5:
                    43:f6:cd:64:de:ec:56:5b:60:b5:3d:15:2c:92:dc:
                    ca:e3:0e:a6:81:90:ae:85:bf:16:13:76:5f:34:3e:
                    68:00:f2:83:e2:48:55:f6:a6:f2:58:79:ec:27:54:
                    25:b8:4f:97:81:50:27:bf:9c:72:9e:62:25:5a:56:
                    e8:ec:af:b5:5c:93:86:2f:14:48:33:76:a3:97:f3:
                    62:45:eb:eb:bc:2e:fd:3e:35
                Exponent: 65537 (0x10001)
        X509v3 extensions:
            X509v3 Basic Constraints: 
                CA:FALSE
            Netscape Comment: 
                OpenSSL Generated Certificate
            X509v3 Subject Key Identifier: 
                B4:83:69:C7:4B:77:53:68:82:D6:A0:0B:1D:4D:38:33:D2:90:DA:37
            X509v3 Authority Key Identifier: 
                DirName:/C=KR/CN=gilgil
                serial:BC:FE:EF:E9:4A:BC:63:F0

    Signature Algorithm: sha256WithRSAEncryption
         0e:03:83:0a:33:ad:68:c3:18:43:ca:71:5c:9e:a7:e4:bd:41:
         05:a5:87:33:66:29:69:2b:28:12:00:b9:09:4b:b5:d1:4a:0d:
         51:2d:ca:e4:17:2a:d6:11:67:43:7f:06:9a:51:75:6e:87:70:
         a9:6b:68:57:97:eb:fe:9a:75:fd:68:79:15:aa:ee:bf:06:f1:
         dc:9e:e9:26:8e:b0:5f:f5:16:98:81:fc:28:56:0d:7f:f2:7d:
         95:2d:28:49:3f:fb:1d:fd:f3:ed:36:57:6c:c2:b4:ce:ba:2d:
         4e:13:d8:09:5a:3e:de:c9:f2:7f:13:71:a5:5c:12:b5:c8:ef:
         32:07
-----BEGIN CERTIFICATE-----
MIICVTCCAb6gAwIBAgIBATANBgkqhkiG9w0BAQsFADAeMQswCQYDVQQGEwJLUjEP
MA0GA1UEAwwGZ2lsZ2lsMCIYDzIwMTQwMzAxMDAwMDAwWhgPMjAyNDAyMjcwMDAw
MDBaMCcxCzAJBgNVBAYTAktSMRgwFgYDVQQDDA9jLmdvLW1wdWxzZS5uZXQwgZ8w
DQYJKoZIhvcNAQEBBQADgY0AMIGJAoGBAMJ6yDXk2jferTnkfz1Sd4xPjG4ILQiH
iTEbF+6s0HyADm3fpprs+gNueoW1Q/bNZN7sVltgtT0VLJLcyuMOpoGQroW/FhN2
XzQ+aADyg+JIVfam8lh57CdUJbhPl4FQJ7+ccp5iJVpW6OyvtVyThi8USDN2o5fz
YkXr67wu/T41AgMBAAGjgZUwgZIwCQYDVR0TBAIwADAsBglghkgBhvhCAQ0EHxYd
T3BlblNTTCBHZW5lcmF0ZWQgQ2VydGlmaWNhdGUwHQYDVR0OBBYEFLSDacdLd1No
gtagCx1NODPSkNo3MDgGA1UdIwQxMC+hIqQgMB4xCzAJBgNVBAYTAktSMQ8wDQYD
VQQDDAZnaWxnaWyCCQC8/u/pSrxj8DANBgkqhkiG9w0BAQsFAAOBgQAOA4MKM61o
wxhDynFcnqfkvUEFpYczZilpKygSALkJS7XRSg1RLcrkFyrWEWdDfwaaUXVuh3Cp
a2hXl+v+mnX9aHkVqu6/BvHcnukmjrBf9RaYgfwoVg1/8n2VLShJP/sd/fPtNlds
wrTOui1OE9gJWj7eyfJ/E3GlXBK1yO8yBw==
-----END CERTIFICATE-----
