-----BEGIN RSA PRIVATE KEY-----
MIICXgIBAAKBgQDAVpvOPTdWtKqDLN4i1zuENpJmpF8FcenqOSUVS8D/KELtCjhu
EI/wpVveErgQ8420Sl0v3KLZMcDdCkvK/SlhbEBaJV0OvYr3XLI7DJ9gYZlwQEBP
/yYPDy6CZjlD6oFZ1qyPyGgtTVJeBR2dheaSga0gJM5s8NzA+rhgkfguXQIDAQAB
AoGBAK4McbeCq9YZbQeBDY8Hp8LvwzGA4r/BooQirA0GXSJIo69vBTuMX0TLzkM6
OziTvRJ+DK+n//F9VWJw079fshX2TE2urmuvzmvh/w54ZD6nW5Vs0Tztz5rBFcfP
4WktQtTJ6Uqmu34KuPJFbGbaW1/VaFjAm02/NO2u7kibAb1BAkEA33X9dcWDLPfc
jC8wRubfKXs4gyC9v3PxUmYj77zNCViMSEtIUBYlNX4DTY7Srxa9xdOojEFsT9Dg
Voi3ZtHEcQJBANxYdDLorOSL2qU6miCAYRZwOO/jiCbjz7/hN1ejaLscu7vXwZ97
Cnqxt6qOsR377MhrORzB1Ax0g5ZpbbAcTq0CQCT0SEQvs6++FbUBIMS47XLYs9HL
mlWNAP2Vcp/04xuGjzxtZroHz4N3IWi0E9dstVl/1UHMl/LjIhZtaZcRXaECQQDZ
gEq7EefP9akO3ijTmkW7s2zQhuWXldo1SqepT3kK8hLyGchbl0XB1Pk6V33H3ixd
rVGD7GRXIw/dAhau91JFAkEAk1f+XGCLA4TeIzv4ttooueZGublj6RTp6438DmNX
KS5xJ7x84FyeOjurjMu2zTgm5PB2rz39Tr6Cmd0+IIcLiw==
-----END RSA PRIVATE KEY-----
Certificate:
    Data:
        Version: 3 (0x2)
        Serial Number: 10 (0xa)
    Signature Algorithm: sha256WithRSAEncryption
        Issuer: C=KR, CN=gilgil
        Validity
            Not Before: Mar  1 00:00:00 2014 GMT
            Not After : Feb 27 00:00:00 2024 GMT
        Subject: C=KR, CN=c1.microsoft.com
        Subject Public Key Info:
            Public Key Algorithm: rsaEncryption
                Public-Key: (1024 bit)
                Modulus:
                    00:c0:56:9b:ce:3d:37:56:b4:aa:83:2c:de:22:d7:
                    3b:84:36:92:66:a4:5f:05:71:e9:ea:39:25:15:4b:
                    c0:ff:28:42:ed:0a:38:6e:10:8f:f0:a5:5b:de:12:
                    b8:10:f3:8d:b4:4a:5d:2f:dc:a2:d9:31:c0:dd:0a:
                    4b:ca:fd:29:61:6c:40:5a:25:5d:0e:bd:8a:f7:5c:
                    b2:3b:0c:9f:60:61:99:70:40:40:4f:ff:26:0f:0f:
                    2e:82:66:39:43:ea:81:59:d6:ac:8f:c8:68:2d:4d:
                    52:5e:05:1d:9d:85:e6:92:81:ad:20:24:ce:6c:f0:
                    dc:c0:fa:b8:60:91:f8:2e:5d
                Exponent: 65537 (0x10001)
        X509v3 extensions:
            X509v3 Basic Constraints: 
                CA:FALSE
            Netscape Comment: 
                OpenSSL Generated Certificate
            X509v3 Subject Key Identifier: 
                6D:0F:16:07:F2:C6:91:72:3C:09:D8:68:5A:A8:9D:D9:BF:BD:C1:B9
            X509v3 Authority Key Identifier: 
                DirName:/C=KR/CN=gilgil
                serial:BC:FE:EF:E9:4A:BC:63:F0

    Signature Algorithm: sha256WithRSAEncryption
         b8:77:5f:82:b6:21:12:61:06:c9:3e:94:9f:11:50:fa:b7:b9:
         4d:2f:0c:c4:b9:d1:9c:e0:5e:3b:b8:8c:b7:ae:4e:70:0e:2e:
         3e:7a:07:8d:d5:a7:cf:6b:44:7b:80:c6:fe:74:5c:6d:59:23:
         c5:ac:ea:2d:21:20:95:a6:73:2a:b0:a2:fa:6a:c2:4b:ca:45:
         26:c3:51:71:0a:65:10:2e:df:81:ca:7e:85:39:0b:22:ee:c7:
         da:da:56:70:6d:be:23:64:6a:ea:c3:ee:00:c8:a6:7d:35:62:
         d3:ae:67:02:ad:9f:45:9a:45:9c:b8:92:7e:6c:16:ee:21:f1:
         f1:f0
-----BEGIN CERTIFICATE-----
MIICVjCCAb+gAwIBAgIBCjANBgkqhkiG9w0BAQsFADAeMQswCQYDVQQGEwJLUjEP
MA0GA1UEAwwGZ2lsZ2lsMCIYDzIwMTQwMzAxMDAwMDAwWhgPMjAyNDAyMjcwMDAw
MDBaMCgxCzAJBgNVBAYTAktSMRkwFwYDVQQDDBBjMS5taWNyb3NvZnQuY29tMIGf
MA0GCSqGSIb3DQEBAQUAA4GNADCBiQKBgQDAVpvOPTdWtKqDLN4i1zuENpJmpF8F
cenqOSUVS8D/KELtCjhuEI/wpVveErgQ8420Sl0v3KLZMcDdCkvK/SlhbEBaJV0O
vYr3XLI7DJ9gYZlwQEBP/yYPDy6CZjlD6oFZ1qyPyGgtTVJeBR2dheaSga0gJM5s
8NzA+rhgkfguXQIDAQABo4GVMIGSMAkGA1UdEwQCMAAwLAYJYIZIAYb4QgENBB8W
HU9wZW5TU0wgR2VuZXJhdGVkIENlcnRpZmljYXRlMB0GA1UdDgQWBBRtDxYH8saR
cjwJ2GhaqJ3Zv73BuTA4BgNVHSMEMTAvoSKkIDAeMQswCQYDVQQGEwJLUjEPMA0G
A1UEAwwGZ2lsZ2lsggkAvP7v6Uq8Y/AwDQYJKoZIhvcNAQELBQADgYEAuHdfgrYh
EmEGyT6UnxFQ+re5TS8MxLnRnOBeO7iMt65OcA4uPnoHjdWnz2tEe4DG/nRcbVkj
xazqLSEglaZzKrCi+mrCS8pFJsNRcQplEC7fgcp+hTkLIu7H2tpWcG2+I2Rq6sPu
AMimfTVi065nAq2fRZpFnLiSfmwW7iHx8fA=
-----END CERTIFICATE-----
