-----BEGIN RSA PRIVATE KEY-----
MIICXQIBAAKBgQDQCJULR0mlq8o5cWu/kRgU1upEsYGBdMvEbVdYxOpWgAnQVpIw
KhjxozmzXtLR9HNF5W0UyEnbicyeG2o/OZYsMuRuz/YTexL0sdcaZKraVdKXruAI
lB4RWmh/xb/80YE1dzhJa0m10NdCEGwgfRcBtT4RGCBINew+PjPaQCnuzwIDAQAB
AoGAaJO34PiQJDFMsj27DYzxzyAOmkOlN5+wA2l33E75AkzRIiMyz/WJnocQLYRA
dHzvKbbgc+8PecY2z1A2w9u+Ckd5it3b4L4CZuJhd861NgEmvnMpVp+DHdeNzad3
uCW+rFyI2szptfqFAHlwuWrAJ26RLjsWehvE9vsEyG1kCskCQQD18JM07fEgmOrI
KixG61QGBupwB8RBUPN9LHpAtOFfknb7ECdLDsMefQBqT254NUkhJb0/pr6iU80P
xn9TLaxlAkEA2IsP1gEY4cyf7KwU6b9lEQr0inIl9xR4fJRi6Vuk2QCTnQZATvVP
NfZN4FHO3A0KT6HGL9NVA8koUTe4M6eZIwJAKkrypZl9a8OgLEfEUXXKfzbVPeq3
/xtyo8XwSAxS7WJ8f3QpraieOTH5zk5Wiulu5/pbbwS3p6aNjvbtklo6WQJBALyT
thHHWNTjL26bmYbKgAhsgvPCXp+iux661ryka5XzM5nupLheV0IGImG0vLHTxWP9
3SsvHn0yhCLepFKPpQMCQQCvyrZLVwSkunlYq+ih08uHvl0v65Oh+aIYNj6M5Qew
fgHK2Im19LRJF8LgOiU8y35RWatFg5FOcuT7J70B06Ip
-----END RSA PRIVATE KEY-----
Certificate:
    Data:
        Version: 3 (0x2)
        Serial Number: 7 (0x7)
    Signature Algorithm: sha256WithRSAEncryption
        Issuer: C=KR, CN=gilgil
        Validity
            Not Before: Mar  1 00:00:00 2014 GMT
            Not After : Feb 27 00:00:00 2024 GMT
        Subject: C=KR, CN=castbox.shopping.naver.com
        Subject Public Key Info:
            Public Key Algorithm: rsaEncryption
                Public-Key: (1024 bit)
                Modulus:
                    00:d0:08:95:0b:47:49:a5:ab:ca:39:71:6b:bf:91:
                    18:14:d6:ea:44:b1:81:81:74:cb:c4:6d:57:58:c4:
                    ea:56:80:09:d0:56:92:30:2a:18:f1:a3:39:b3:5e:
                    d2:d1:f4:73:45:e5:6d:14:c8:49:db:89:cc:9e:1b:
                    6a:3f:39:96:2c:32:e4:6e:cf:f6:13:7b:12:f4:b1:
                    d7:1a:64:aa:da:55:d2:97:ae:e0:08:94:1e:11:5a:
                    68:7f:c5:bf:fc:d1:81:35:77:38:49:6b:49:b5:d0:
                    d7:42:10:6c:20:7d:17:01:b5:3e:11:18:20:48:35:
                    ec:3e:3e:33:da:40:29:ee:cf
                Exponent: 65537 (0x10001)
        X509v3 extensions:
            X509v3 Basic Constraints: 
                CA:FALSE
            Netscape Comment: 
                OpenSSL Generated Certificate
            X509v3 Subject Key Identifier: 
                E6:42:43:F1:53:D8:CD:80:A5:B4:33:D7:83:0B:C7:7C:75:C3:49:CF
            X509v3 Authority Key Identifier: 
                DirName:/C=KR/CN=gilgil
                serial:BC:FE:EF:E9:4A:BC:63:F0

    Signature Algorithm: sha256WithRSAEncryption
         48:2a:11:1e:73:ec:f4:89:7d:f4:2f:8a:9c:d0:a1:07:8b:16:
         3a:a2:31:b5:95:05:e0:c4:98:5b:18:0a:94:d6:24:35:84:ee:
         05:e3:ce:ff:ed:ce:cb:31:08:38:b3:d8:47:c1:95:16:bf:50:
         a1:a4:91:11:d2:be:b5:b8:de:66:22:4f:17:95:fd:b8:52:4b:
         9e:b4:ac:39:bc:fc:26:4f:e8:47:63:8b:ae:c6:ee:e9:91:fd:
         cc:42:44:4c:23:51:b4:fa:2a:e6:0e:04:ad:51:98:b8:c5:41:
         54:c3:2c:5f:a5:f5:0a:4c:96:1b:51:ce:14:7a:78:94:14:7f:
         f7:79
-----BEGIN CERTIFICATE-----
MIICYDCCAcmgAwIBAgIBBzANBgkqhkiG9w0BAQsFADAeMQswCQYDVQQGEwJLUjEP
MA0GA1UEAwwGZ2lsZ2lsMCIYDzIwMTQwMzAxMDAwMDAwWhgPMjAyNDAyMjcwMDAw
MDBaMDIxCzAJBgNVBAYTAktSMSMwIQYDVQQDDBpjYXN0Ym94LnNob3BwaW5nLm5h
dmVyLmNvbTCBnzANBgkqhkiG9w0BAQEFAAOBjQAwgYkCgYEA0AiVC0dJpavKOXFr
v5EYFNbqRLGBgXTLxG1XWMTqVoAJ0FaSMCoY8aM5s17S0fRzReVtFMhJ24nMnhtq
PzmWLDLkbs/2E3sS9LHXGmSq2lXSl67gCJQeEVpof8W//NGBNXc4SWtJtdDXQhBs
IH0XAbU+ERggSDXsPj4z2kAp7s8CAwEAAaOBlTCBkjAJBgNVHRMEAjAAMCwGCWCG
SAGG+EIBDQQfFh1PcGVuU1NMIEdlbmVyYXRlZCBDZXJ0aWZpY2F0ZTAdBgNVHQ4E
FgQU5kJD8VPYzYCltDPXgwvHfHXDSc8wOAYDVR0jBDEwL6EipCAwHjELMAkGA1UE
BhMCS1IxDzANBgNVBAMMBmdpbGdpbIIJALz+7+lKvGPwMA0GCSqGSIb3DQEBCwUA
A4GBAEgqER5z7PSJffQvipzQoQeLFjqiMbWVBeDEmFsYCpTWJDWE7gXjzv/tzssx
CDiz2EfBlRa/UKGkkRHSvrW43mYiTxeV/bhSS560rDm8/CZP6Edji67G7umR/cxC
REwjUbT6KuYOBK1RmLjFQVTDLF+l9QpMlhtRzhR6eJQUf/d5
-----END CERTIFICATE-----
