-----BEGIN RSA PRIVATE KEY-----
MIICXgIBAAKBgQDKqBnUUEkstncF+nLFStQfxd2ZgHSZp0kdHW3C+xrVmSlxx4py
6ep60ZrW7v8YkmmUmG8hWAt1/rxz7pQtuvXxaTADjHhJeqxI1RowQWqieLtrm24D
aVQoW0uRVlmf0+tJp/pBGfp7kk8I47JndQc5j/ceAv+96xhEpRrJAdd7HwIDAQAB
AoGBAI7lV0koz2ASzPxPK4xIBijdOTMaq50Iovo/nPymWLaSR/HtlIcQv4CYuYii
fwdRfdcEYR/u2C38T9+jM6LHONEdReEXTxc4e0eW/fK+zuM6NtM2ojjUU6+R9RpZ
M5/K/KPW1a4U9tNilxRBwRSKWr34mQ1ARL+N51EgZZSj4OPpAkEA+DylqM+VcNFV
VCcQFbc6+x7cmGsjkUWD2yFSXA3Ami31/9VLjaZ3QiwjmR5cEsr/E3aGTxNpQ0Hs
fYi0Z92RrQJBAND+i0gLeZ+ksaUdum2PX4eHC5Jfm7IeJL5cu+6Rmf8qL1imm5QA
V3gA9EFY3G/faalUjriVB6Slpjey2SVOEXsCQQDa63lZYAC2JxbuiSipTheJAdWf
4dTTOBAp/8AHiOVT07bAcZYZDTbdt9mJHvoqZLYBrySRtle9xfTPXPFlLEVdAkAt
11dnoxS3XqGUjRPCSkty570zCwOUqyX2F1MlfgxgOrmN4WWIrhaBfPwWhU48v61m
deSkOhQmGit+Vh1pIFmXAkEAlsVZxm64PvJxIGrCycnpA+gzgaT55k7TTDrUd2i+
IuBrTCZAeIcY6TgNEAhYJgFqFsd4qrPqRc1bB/fMv/S3eg==
-----END RSA PRIVATE KEY-----
Certificate:
    Data:
        Version: 3 (0x2)
        Serial Number: 4 (0x4)
    Signature Algorithm: sha256WithRSAEncryption
        Issuer: C=KR, CN=gilgil
        Validity
            Not Before: Mar  1 00:00:00 2014 GMT
            Not After : Feb 27 00:00:00 2024 GMT
        Subject: C=KR, CN=cuscochromeextension-pa.googleapis.com
        Subject Public Key Info:
            Public Key Algorithm: rsaEncryption
                Public-Key: (1024 bit)
                Modulus:
                    00:ca:a8:19:d4:50:49:2c:b6:77:05:fa:72:c5:4a:
                    d4:1f:c5:dd:99:80:74:99:a7:49:1d:1d:6d:c2:fb:
                    1a:d5:99:29:71:c7:8a:72:e9:ea:7a:d1:9a:d6:ee:
                    ff:18:92:69:94:98:6f:21:58:0b:75:fe:bc:73:ee:
                    94:2d:ba:f5:f1:69:30:03:8c:78:49:7a:ac:48:d5:
                    1a:30:41:6a:a2:78:bb:6b:9b:6e:03:69:54:28:5b:
                    4b:91:56:59:9f:d3:eb:49:a7:fa:41:19:fa:7b:92:
                    4f:08:e3:b2:67:75:07:39:8f:f7:1e:02:ff:bd:eb:
                    18:44:a5:1a:c9:01:d7:7b:1f
                Exponent: 65537 (0x10001)
        X509v3 extensions:
            X509v3 Basic Constraints: 
                CA:FALSE
            Netscape Comment: 
                OpenSSL Generated Certificate
            X509v3 Subject Key Identifier: 
                84:4C:FA:CC:06:76:56:24:CE:19:8C:56:10:82:B9:D7:01:D1:44:81
            X509v3 Authority Key Identifier: 
                DirName:/C=KR/CN=gilgil
                serial:BC:FE:EF:E9:4A:BC:63:F0

    Signature Algorithm: sha256WithRSAEncryption
         76:81:40:a6:16:4e:66:2d:4d:4d:cf:a8:96:8d:19:61:ee:ef:
         bf:d3:61:dc:05:a7:42:08:cc:62:99:d6:07:4e:a1:5f:1d:0d:
         ad:38:6e:97:a1:4b:3a:12:56:63:f6:c8:0d:7f:1e:ae:8b:34:
         96:3a:4e:2a:c4:3a:7d:77:2a:d7:09:c5:8d:21:17:f5:58:49:
         49:c6:68:46:ee:b9:1a:ca:a7:f4:24:3f:e3:50:9c:d0:8d:76:
         2c:33:72:df:8d:8a:cb:b8:11:78:4b:01:9b:4e:54:37:68:9d:
         e8:b6:d7:58:0d:cb:35:93:3b:d9:8e:44:71:08:8c:49:98:59:
         55:55
-----BEGIN CERTIFICATE-----
MIICbDCCAdWgAwIBAgIBBDANBgkqhkiG9w0BAQsFADAeMQswCQYDVQQGEwJLUjEP
MA0GA1UEAwwGZ2lsZ2lsMCIYDzIwMTQwMzAxMDAwMDAwWhgPMjAyNDAyMjcwMDAw
MDBaMD4xCzAJBgNVBAYTAktSMS8wLQYDVQQDDCZjdXNjb2Nocm9tZWV4dGVuc2lv
bi1wYS5nb29nbGVhcGlzLmNvbTCBnzANBgkqhkiG9w0BAQEFAAOBjQAwgYkCgYEA
yqgZ1FBJLLZ3BfpyxUrUH8XdmYB0madJHR1twvsa1ZkpcceKcunqetGa1u7/GJJp
lJhvIVgLdf68c+6ULbr18WkwA4x4SXqsSNUaMEFqoni7a5tuA2lUKFtLkVZZn9Pr
Saf6QRn6e5JPCOOyZ3UHOY/3HgL/vesYRKUayQHXex8CAwEAAaOBlTCBkjAJBgNV
HRMEAjAAMCwGCWCGSAGG+EIBDQQfFh1PcGVuU1NMIEdlbmVyYXRlZCBDZXJ0aWZp
Y2F0ZTAdBgNVHQ4EFgQUhEz6zAZ2ViTOGYxWEIK51wHRRIEwOAYDVR0jBDEwL6Ei
pCAwHjELMAkGA1UEBhMCS1IxDzANBgNVBAMMBmdpbGdpbIIJALz+7+lKvGPwMA0G
CSqGSIb3DQEBCwUAA4GBAHaBQKYWTmYtTU3PqJaNGWHu77/TYdwFp0IIzGKZ1gdO
oV8dDa04bpehSzoSVmP2yA1/Hq6LNJY6TirEOn13KtcJxY0hF/VYSUnGaEbuuRrK
p/QkP+NQnNCNdiwzct+Nisu4EXhLAZtOVDdonei211gNyzWTO9mORHEIjEmYWVVV
-----END CERTIFICATE-----
