-----BEGIN RSA PRIVATE KEY-----
MIICXAIBAAKBgQDbgbuJSdehJQBEsXtNwZxl1QIVtiJlEawwIOXoJTziLq9xJP0N
+rM+pX/hkiLJJOPlsx4IE7y43miVJwG02BK5aYQXkLgXSi09u50hJgGZb59TkTIF
tOR3EJkKGX9BWPakGPAvdERNkYnXoYceC7qDLR68NlKRfs/8RnPA5U8DqQIDAQAB
AoGAYYKDBZzI7ivar6lMBiGg0VfLgkuTgeRU4lhq6TJJlox4oUF2LJSWtZidc14Q
l9wMZQipqZri9hjOyps2Vdi6j9IjNyCH+buUDiivYqBmUK0T1dbPEMXz47Jh9gMX
FYrpdR+kqDRZsInY6xof25Bm0QMVQbPkIcDybyJB/jbR2gECQQD4/hGoRR4zQFWT
WBTjYJKcVKDImsxThgQOIDACMJcI9dPzMQksFXUPKGRI2CN2Ef7HxDQkYLzm5loK
PVvuMhdpAkEA4a857Dh1vSN/hOBPEKX1hEL/BBiRnMVTTq2SvdfaZznxZyUBAcsa
o5/LsUtPLJDgiIHJa7eWKz47y7NnqF5CQQJBAPMbfjoBYj9ALU2zzpFDFWK17lZv
bdiPHR59puI8dvs0qkDkO8RjHuwxz9ifz9/UKiL6Gr76BPadKoSc7ElhdyECQGOT
YMctEiXlp7oFDl2WHAHDXal8/aJiHiO0ye4hcyfglPahiRQ1fQd81e7f/4r2UVtp
iGmSkxt5VgDGo5HSJQECQEAv5cdKssFuqCb4IRph3T2Bw8j2IeAkcVeRqOupyePL
FkvD55I/dDr4rG0wE4B2qL3ZGAdsNAWxQZs0oGbD4Es=
-----END RSA PRIVATE KEY-----
Certificate:
    Data:
        Version: 3 (0x2)
        Serial Number: 3 (0x3)
    Signature Algorithm: sha256WithRSAEncryption
        Issuer: C=KR, CN=gilgil
        Validity
            Not Before: Mar  1 00:00:00 2014 GMT
            Not After : Feb 27 00:00:00 2024 GMT
        Subject: C=KR, CN=disc701-prod.do.dsp.mp.microsoft.com
        Subject Public Key Info:
            Public Key Algorithm: rsaEncryption
                Public-Key: (1024 bit)
                Modulus:
                    00:db:81:bb:89:49:d7:a1:25:00:44:b1:7b:4d:c1:
                    9c:65:d5:02:15:b6:22:65:11:ac:30:20:e5:e8:25:
                    3c:e2:2e:af:71:24:fd:0d:fa:b3:3e:a5:7f:e1:92:
                    22:c9:24:e3:e5:b3:1e:08:13:bc:b8:de:68:95:27:
                    01:b4:d8:12:b9:69:84:17:90:b8:17:4a:2d:3d:bb:
                    9d:21:26:01:99:6f:9f:53:91:32:05:b4:e4:77:10:
                    99:0a:19:7f:41:58:f6:a4:18:f0:2f:74:44:4d:91:
                    89:d7:a1:87:1e:0b:ba:83:2d:1e:bc:36:52:91:7e:
                    cf:fc:46:73:c0:e5:4f:03:a9
                Exponent: 65537 (0x10001)
        X509v3 extensions:
            X509v3 Basic Constraints: 
                CA:FALSE
            Netscape Comment: 
                OpenSSL Generated Certificate
            X509v3 Subject Key Identifier: 
                87:90:A5:BE:FE:B6:85:32:65:9C:5B:94:E5:EC:80:F5:88:36:AF:E2
            X509v3 Authority Key Identifier: 
                DirName:/C=KR/CN=gilgil
                serial:BC:FE:EF:E9:4A:BC:63:F0

    Signature Algorithm: sha256WithRSAEncryption
         30:b5:a8:86:37:26:92:6f:88:1f:81:6f:fc:d0:fc:1c:ec:94:
         78:0f:9e:cf:3a:cc:9e:61:fd:ef:9f:ec:9d:1c:d8:c0:37:4a:
         2c:98:50:71:0b:23:45:fc:62:45:0a:dc:df:47:48:65:a9:a3:
         7a:2c:86:09:b2:9c:c5:b3:18:28:b6:13:40:bc:b9:57:6d:6b:
         95:c0:59:7d:8d:d4:53:43:1c:74:bb:68:ff:b8:b8:9c:da:37:
         8d:9b:d3:69:9f:8c:d8:5e:71:6b:b9:a0:77:46:a4:ec:16:31:
         bd:8c:11:fd:27:ff:ca:e3:45:90:3f:b2:c9:e8:11:75:4c:e2:
         40:37
-----BEGIN CERTIFICATE-----
MIICajCCAdOgAwIBAgIBAzANBgkqhkiG9w0BAQsFADAeMQswCQYDVQQGEwJLUjEP
MA0GA1UEAwwGZ2lsZ2lsMCIYDzIwMTQwMzAxMDAwMDAwWhgPMjAyNDAyMjcwMDAw
MDBaMDwxCzAJBgNVBAYTAktSMS0wKwYDVQQDDCRkaXNjNzAxLXByb2QuZG8uZHNw
Lm1wLm1pY3Jvc29mdC5jb20wgZ8wDQYJKoZIhvcNAQEBBQADgY0AMIGJAoGBANuB
u4lJ16ElAESxe03BnGXVAhW2ImURrDAg5eglPOIur3Ek/Q36sz6lf+GSIskk4+Wz
HggTvLjeaJUnAbTYErlphBeQuBdKLT27nSEmAZlvn1ORMgW05HcQmQoZf0FY9qQY
8C90RE2Ridehhx4LuoMtHrw2UpF+z/xGc8DlTwOpAgMBAAGjgZUwgZIwCQYDVR0T
BAIwADAsBglghkgBhvhCAQ0EHxYdT3BlblNTTCBHZW5lcmF0ZWQgQ2VydGlmaWNh
dGUwHQYDVR0OBBYEFIeQpb7+toUyZZxblOXsgPWINq/iMDgGA1UdIwQxMC+hIqQg
MB4xCzAJBgNVBAYTAktSMQ8wDQYDVQQDDAZnaWxnaWyCCQC8/u/pSrxj8DANBgkq
hkiG9w0BAQsFAAOBgQAwtaiGNyaSb4gfgW/80Pwc7JR4D57POsyeYf3vn+ydHNjA
N0osmFBxCyNF/GJFCtzfR0hlqaN6LIYJspzFsxgothNAvLlXbWuVwFl9jdRTQxx0
u2j/uLic2jeNm9Npn4zYXnFruaB3RqTsFjG9jBH9J//K40WQP7LJ6BF1TOJANw==
-----END CERTIFICATE-----
