-----BEGIN RSA PRIVATE KEY-----
MIICXQIBAAKBgQDceChciXTe4Ej5f4SCKfbKyQmzlvOxZV6EejofqTaFWFglgDB9
xS57hLz+r/cQeAgHESkDNMwfjVGO1Iw+qLcjdRc26EQbe/+YzVHwZs6c+KeeLVN7
KQp5AiIiWzlwgSswBmro6LnibjgM2KYtoK8VZ9PNS1L2kTRxG975Hr1gEwIDAQAB
AoGANQi+hMwYDgkb5NC0+m7HzC4iJE5ansDIxMt2MemNkPQYeCTnBUoqjVH3+Lgx
kYeePrz1Ba1ssOZYySf9+JCzROTkhU/tmnafDZiobfB8ApWcHHIRY1uCFX2CEHHo
wgLG/BXiwpjt2rEo+9e8e/yIbRNwoHZ8XatelNcTaKjVACkCQQD2hZHyC1cIajng
204l92F/08N1LgJEiayZBtdTo7d/MO5CB9GXTYqHwJFELhQnoQ9WRQ3C7OUOkGXO
ZQ13pl+vAkEA5PIpp9LZIr1lKfl1LTWPh1VfLIOh5YCzeZA+WQitJRn9Of0jTp9z
u5ozWwtjIWSELdFDPdFrKtnz3Bx45Csa3QJBAIGtHWp/QJbymeOIOQGLscP19vkq
7JJ1AU+144rhseK8MHiXeE7owRhL2Z5NxthZxqGQzX5d8tfIaWU6ju0DnY0CQB8t
r2iQeUuW2VkPBNskSSiYAr8QKhMUJNzwPN1pJhNAZ9Dm3VEOu/cXd9j1QwnAI5QN
xId9poeOaPxX0EraZ+0CQQCAkWNQioL0cshijqC5n8UiuC/I59p5qB8r2rGnL0Uk
nqPTWOEmKXevgKEJUoTSyS5UBK7KjDQviTs7A+UUIC+l
-----END RSA PRIVATE KEY-----
Certificate:
    Data:
        Version: 3 (0x2)
        Serial Number: 4 (0x4)
    Signature Algorithm: sha256WithRSAEncryption
        Issuer: C=KR, CN=gilgil
        Validity
            Not Before: Mar  1 00:00:00 2014 GMT
            Not After : Feb 27 00:00:00 2024 GMT
        Subject: C=KR, CN=docs.google.com
        Subject Public Key Info:
            Public Key Algorithm: rsaEncryption
                Public-Key: (1024 bit)
                Modulus:
                    00:dc:78:28:5c:89:74:de:e0:48:f9:7f:84:82:29:
                    f6:ca:c9:09:b3:96:f3:b1:65:5e:84:7a:3a:1f:a9:
                    36:85:58:58:25:80:30:7d:c5:2e:7b:84:bc:fe:af:
                    f7:10:78:08:07:11:29:03:34:cc:1f:8d:51:8e:d4:
                    8c:3e:a8:b7:23:75:17:36:e8:44:1b:7b:ff:98:cd:
                    51:f0:66:ce:9c:f8:a7:9e:2d:53:7b:29:0a:79:02:
                    22:22:5b:39:70:81:2b:30:06:6a:e8:e8:b9:e2:6e:
                    38:0c:d8:a6:2d:a0:af:15:67:d3:cd:4b:52:f6:91:
                    34:71:1b:de:f9:1e:bd:60:13
                Exponent: 65537 (0x10001)
        X509v3 extensions:
            X509v3 Basic Constraints: 
                CA:FALSE
            Netscape Comment: 
                OpenSSL Generated Certificate
            X509v3 Subject Key Identifier: 
                3A:F8:2E:9C:FA:01:6D:58:7F:40:56:4B:B7:45:C1:9A:09:FB:7B:87
            X509v3 Authority Key Identifier: 
                DirName:/C=KR/CN=gilgil
                serial:BC:FE:EF:E9:4A:BC:63:F0

    Signature Algorithm: sha256WithRSAEncryption
         00:2d:f7:01:c4:52:c8:89:37:f9:ba:76:e5:1d:24:fe:6a:db:
         20:4e:99:19:5a:d0:08:f0:af:f9:7a:f3:a1:41:10:7c:5b:97:
         81:5b:cb:50:1a:ce:92:50:1a:ac:4b:d1:1d:32:5d:42:31:42:
         fa:a5:2a:90:12:18:86:45:84:c1:68:35:bf:00:b1:82:d0:e0:
         54:16:b5:40:97:62:b7:40:69:9c:6b:7b:3a:32:b6:00:33:36:
         0e:8b:70:73:21:12:20:38:b9:61:10:d1:51:e0:cf:6f:11:70:
         46:30:6c:c2:d1:0a:bf:67:13:72:f9:db:70:6a:40:6a:3d:aa:
         7f:9f
-----BEGIN CERTIFICATE-----
MIICVTCCAb6gAwIBAgIBBDANBgkqhkiG9w0BAQsFADAeMQswCQYDVQQGEwJLUjEP
MA0GA1UEAwwGZ2lsZ2lsMCIYDzIwMTQwMzAxMDAwMDAwWhgPMjAyNDAyMjcwMDAw
MDBaMCcxCzAJBgNVBAYTAktSMRgwFgYDVQQDDA9kb2NzLmdvb2dsZS5jb20wgZ8w
DQYJKoZIhvcNAQEBBQADgY0AMIGJAoGBANx4KFyJdN7gSPl/hIIp9srJCbOW87Fl
XoR6Oh+pNoVYWCWAMH3FLnuEvP6v9xB4CAcRKQM0zB+NUY7UjD6otyN1FzboRBt7
/5jNUfBmzpz4p54tU3spCnkCIiJbOXCBKzAGaujoueJuOAzYpi2grxVn081LUvaR
NHEb3vkevWATAgMBAAGjgZUwgZIwCQYDVR0TBAIwADAsBglghkgBhvhCAQ0EHxYd
T3BlblNTTCBHZW5lcmF0ZWQgQ2VydGlmaWNhdGUwHQYDVR0OBBYEFDr4Lpz6AW1Y
f0BWS7dFwZoJ+3uHMDgGA1UdIwQxMC+hIqQgMB4xCzAJBgNVBAYTAktSMQ8wDQYD
VQQDDAZnaWxnaWyCCQC8/u/pSrxj8DANBgkqhkiG9w0BAQsFAAOBgQAALfcBxFLI
iTf5unblHST+atsgTpkZWtAI8K/5evOhQRB8W5eBW8tQGs6SUBqsS9EdMl1CMUL6
pSqQEhiGRYTBaDW/ALGC0OBUFrVAl2K3QGmca3s6MrYAMzYOi3BzIRIgOLlhENFR
4M9vEXBGMGzC0Qq/ZxNy+dtwakBqPap/nw==
-----END CERTIFICATE-----
