-----BEGIN RSA PRIVATE KEY-----
MIICXAIBAAKBgQDekEy4mzy5BjRf+I+JU2o3JrwFheKNbMTFKMLfJFgOnqee7ouB
We7oQtkkUnulH2+0iPCIMpAqwHXUkETgwo6OburxjdEP9izeIXZPC6/gp0ZhhZhW
nIKmzuFUj+mrfmFqDmvIrE2Iua9/wgBRpI0xfaeZQGKMvjaw9xoaS6vrDwIDAQAB
AoGBAJXBvv4Q5sERHbjeBac/y56kn6uPtSu4XobTsJx5Vg8wTlWw6Yn2O71pDbdV
EQHAr2dpJYBflYZOznpjQRWDlGudYwk04gPOl4FjHuy+YbY0LRgbWKJtlc/OVUJb
vfDarfNNMiz30EKsxcOQTDIKuBo/VmDK15PgL18sQ1JDtKrhAkEA92piKeqqs/v2
2ZJEO7iK/1SSJMKUyxawkzexgZk+RZ/KHsO+El5gdszBeA1Sv17KPymUUBmXSXNn
HxhCLdJF9wJBAOZJLLCXhXlkL+mZnqQuJ+88tTGrN6/F6XXt+OvgLD7nvf01esg0
4CF9ybyI36tWPrQXZ6fYTETrmpXZAcrXXakCQQDXL8fA/UEK2ZKRGQ4PgyoheMTD
BBm1qT5aTI4uUcI/fAKnT0f5Yew0Z1G9wJi/qQnudZNxN1DFqYF/IfItOD1xAkBe
WY6wz3PFN5IV0HXZ6Hs+Ho5SSkcnghvT0GtTIOaf40zJCHdEvb0ym5ni3+VcCpro
KEq0zv74odsVF/MPC0v5Aj9UGEw+OseMjt5LUjmhGBchmPjbA3nQ5fGec28DmH1D
SsHWeS9HW/ABACjzDOZRAM5Ks3mPOh3qs5DjcETyuow=
-----END RSA PRIVATE KEY-----
Certificate:
    Data:
        Version: 3 (0x2)
        Serial Number: 11 (0xb)
    Signature Algorithm: sha256WithRSAEncryption
        Issuer: C=KR, CN=gilgil
        Validity
            Not Before: Mar  1 00:00:00 2014 GMT
            Not After : Feb 27 00:00:00 2024 GMT
        Subject: C=KR, CN=dpm.demdex.net
        Subject Public Key Info:
            Public Key Algorithm: rsaEncryption
                Public-Key: (1024 bit)
                Modulus:
                    00:de:90:4c:b8:9b:3c:b9:06:34:5f:f8:8f:89:53:
                    6a:37:26:bc:05:85:e2:8d:6c:c4:c5:28:c2:df:24:
                    58:0e:9e:a7:9e:ee:8b:81:59:ee:e8:42:d9:24:52:
                    7b:a5:1f:6f:b4:88:f0:88:32:90:2a:c0:75:d4:90:
                    44:e0:c2:8e:8e:6e:ea:f1:8d:d1:0f:f6:2c:de:21:
                    76:4f:0b:af:e0:a7:46:61:85:98:56:9c:82:a6:ce:
                    e1:54:8f:e9:ab:7e:61:6a:0e:6b:c8:ac:4d:88:b9:
                    af:7f:c2:00:51:a4:8d:31:7d:a7:99:40:62:8c:be:
                    36:b0:f7:1a:1a:4b:ab:eb:0f
                Exponent: 65537 (0x10001)
        X509v3 extensions:
            X509v3 Basic Constraints: 
                CA:FALSE
            Netscape Comment: 
                OpenSSL Generated Certificate
            X509v3 Subject Key Identifier: 
                32:89:98:C3:C5:B5:44:20:0A:00:DE:B7:2E:B0:23:79:32:09:2F:F0
            X509v3 Authority Key Identifier: 
                DirName:/C=KR/CN=gilgil
                serial:BC:FE:EF:E9:4A:BC:63:F0

    Signature Algorithm: sha256WithRSAEncryption
         32:0a:5f:9c:4a:13:b6:e1:d9:0e:58:47:b9:c2:f2:6e:3c:32:
         36:fa:d7:c4:6d:6d:2c:b3:7f:3a:a0:06:58:6c:2f:be:ab:60:
         29:9e:2d:1b:40:06:63:81:37:41:27:a6:a8:75:f4:b7:22:78:
         53:a7:23:35:78:35:10:9b:83:81:45:f3:39:bf:fb:29:33:68:
         ee:b7:fa:08:9b:bf:e5:dd:6b:f7:7b:fb:76:9b:27:0d:90:28:
         d4:9e:68:99:14:47:90:18:ea:79:49:d7:1a:fc:8d:45:52:11:
         f8:4b:89:3b:6f:f6:bd:66:e5:6a:0d:28:c1:38:e9:cd:e3:3b:
         52:6e
-----BEGIN CERTIFICATE-----
MIICVDCCAb2gAwIBAgIBCzANBgkqhkiG9w0BAQsFADAeMQswCQYDVQQGEwJLUjEP
MA0GA1UEAwwGZ2lsZ2lsMCIYDzIwMTQwMzAxMDAwMDAwWhgPMjAyNDAyMjcwMDAw
MDBaMCYxCzAJBgNVBAYTAktSMRcwFQYDVQQDDA5kcG0uZGVtZGV4Lm5ldDCBnzAN
BgkqhkiG9w0BAQEFAAOBjQAwgYkCgYEA3pBMuJs8uQY0X/iPiVNqNya8BYXijWzE
xSjC3yRYDp6nnu6LgVnu6ELZJFJ7pR9vtIjwiDKQKsB11JBE4MKOjm7q8Y3RD/Ys
3iF2Twuv4KdGYYWYVpyCps7hVI/pq35hag5ryKxNiLmvf8IAUaSNMX2nmUBijL42
sPcaGkur6w8CAwEAAaOBlTCBkjAJBgNVHRMEAjAAMCwGCWCGSAGG+EIBDQQfFh1P
cGVuU1NMIEdlbmVyYXRlZCBDZXJ0aWZpY2F0ZTAdBgNVHQ4EFgQUMomYw8W1RCAK
AN63LrAjeTIJL/AwOAYDVR0jBDEwL6EipCAwHjELMAkGA1UEBhMCS1IxDzANBgNV
BAMMBmdpbGdpbIIJALz+7+lKvGPwMA0GCSqGSIb3DQEBCwUAA4GBADIKX5xKE7bh
2Q5YR7nC8m48Mjb618RtbSyzfzqgBlhsL76rYCmeLRtABmOBN0Enpqh19LcieFOn
IzV4NRCbg4FF8zm/+ykzaO63+gibv+Xda/d7+3abJw2QKNSeaJkUR5AY6nlJ1xr8
jUVSEfhLiTtv9r1m5WoNKME46c3jO1Ju
-----END CERTIFICATE-----
