-----BEGIN RSA PRIVATE KEY-----
MIICXAIBAAKBgQDIzKjIV1rGCKedu83jBzzIVPSW4k/8SYbd0s8VtBs2GV6pH85E
YTbIlhg89B5i7vYZU976c9AF2eNi5MwS0Mq+QWNltztxeFzUKSzmU59ENHPVZZyG
HKMHTDPyQRNL71sGnKHesR3NZ+yfiIoMQBi1a+m2h9ZVjEtJS7fX0aZmOwIDAQAB
AoGAAU1adtoiK5CYzawPHL7KRR5P676R+Dfd2Qhp8WEWoBYwB/a91rGuskRO6e5H
WCrmi6mAk602lyMfl1+WdzTFa818v39TZXO4pHfA6SjvTAB4AmDjwJBMRK8MitbD
ddjvlG2av+AKybt6CBWGVjvQKlqZ8ZOyp6m1n8QwBNVs4akCQQDv6TpTMlkSqO7Z
/RusyNrKsMnrpFzEsytlxuXO4256WPlxBPnUuxmK+xmaoF4NCNj4Bf7A2wsUmuY4
2dGGfbfdAkEA1kP3i0ClRu0BYaGwPcDD6D/S6ofZzX864XiPkyLZAH8fIUQPJq2H
u1qY3pm2isPdMg3Gcx1oXZ1tbVl+fyIA9wJBAKDUOxNW5zuJIEXmVc0pAPNsPJDJ
qJ78dZVPFvPwpzlBuEa5zTl9DAyNdIaiByq5yanLaxKiRPVVOgzWiI2ebckCQBYR
fgeLqvo5IvFJU/uoRQVAvZqGT3qI5ime3zrKVgtlDHHCrsTPDrHPTPtwXYrBTaEA
JjZpCvzJYCHpG8xAVlUCQG8p3BE5aEyduEVykeWxkg6o86xyAdguNLyIP5oSow9x
+iEoKW9yw4NkG1Kf5+oCYdqpLm2jm0O5HzxAX8LXw38=
-----END RSA PRIVATE KEY-----
Certificate:
    Data:
        Version: 3 (0x2)
        Serial Number: 2 (0x2)
    Signature Algorithm: sha256WithRSAEncryption
        Issuer: C=KR, CN=gilgil
        Validity
            Not Before: Mar  1 00:00:00 2014 GMT
            Not After : Feb 27 00:00:00 2024 GMT
        Subject: C=KR, CN=geo-prod.do.dsp.mp.microsoft.com
        Subject Public Key Info:
            Public Key Algorithm: rsaEncryption
                Public-Key: (1024 bit)
                Modulus:
                    00:c8:cc:a8:c8:57:5a:c6:08:a7:9d:bb:cd:e3:07:
                    3c:c8:54:f4:96:e2:4f:fc:49:86:dd:d2:cf:15:b4:
                    1b:36:19:5e:a9:1f:ce:44:61:36:c8:96:18:3c:f4:
                    1e:62:ee:f6:19:53:de:fa:73:d0:05:d9:e3:62:e4:
                    cc:12:d0:ca:be:41:63:65:b7:3b:71:78:5c:d4:29:
                    2c:e6:53:9f:44:34:73:d5:65:9c:86:1c:a3:07:4c:
                    33:f2:41:13:4b:ef:5b:06:9c:a1:de:b1:1d:cd:67:
                    ec:9f:88:8a:0c:40:18:b5:6b:e9:b6:87:d6:55:8c:
                    4b:49:4b:b7:d7:d1:a6:66:3b
                Exponent: 65537 (0x10001)
        X509v3 extensions:
            X509v3 Basic Constraints: 
                CA:FALSE
            Netscape Comment: 
                OpenSSL Generated Certificate
            X509v3 Subject Key Identifier: 
                50:02:1B:73:8E:7D:91:82:27:2C:22:FC:B8:B7:8F:1F:D0:7D:EB:4C
            X509v3 Authority Key Identifier: 
                DirName:/C=KR/CN=gilgil
                serial:BC:FE:EF:E9:4A:BC:63:F0

    Signature Algorithm: sha256WithRSAEncryption
         89:a3:cc:23:11:d3:11:78:f7:73:38:30:24:62:30:77:ab:fc:
         e1:f5:50:09:6d:21:51:f1:f6:b0:29:2d:4f:bc:13:71:77:b4:
         33:b3:e4:9a:b1:40:5a:78:df:c8:d1:59:f5:a7:79:52:5b:73:
         6d:58:7a:ee:2a:41:97:91:3e:99:c7:7a:03:2a:c7:79:16:03:
         07:44:ce:6e:1f:0a:e7:61:a4:72:c2:36:3b:7b:9b:c4:7d:cb:
         1b:f3:33:bf:ad:80:a6:4d:cf:8e:7e:b4:cf:76:70:58:b3:18:
         8c:5a:1a:1b:b9:41:99:a5:d8:cd:b3:08:5b:99:ad:69:37:88:
         bb:39
-----BEGIN CERTIFICATE-----
MIICZjCCAc+gAwIBAgIBAjANBgkqhkiG9w0BAQsFADAeMQswCQYDVQQGEwJLUjEP
MA0GA1UEAwwGZ2lsZ2lsMCIYDzIwMTQwMzAxMDAwMDAwWhgPMjAyNDAyMjcwMDAw
MDBaMDgxCzAJBgNVBAYTAktSMSkwJwYDVQQDDCBnZW8tcHJvZC5kby5kc3AubXAu
bWljcm9zb2Z0LmNvbTCBnzANBgkqhkiG9w0BAQEFAAOBjQAwgYkCgYEAyMyoyFda
xginnbvN4wc8yFT0luJP/EmG3dLPFbQbNhleqR/ORGE2yJYYPPQeYu72GVPe+nPQ
BdnjYuTMEtDKvkFjZbc7cXhc1Cks5lOfRDRz1WWchhyjB0wz8kETS+9bBpyh3rEd
zWfsn4iKDEAYtWvptofWVYxLSUu319GmZjsCAwEAAaOBlTCBkjAJBgNVHRMEAjAA
MCwGCWCGSAGG+EIBDQQfFh1PcGVuU1NMIEdlbmVyYXRlZCBDZXJ0aWZpY2F0ZTAd
BgNVHQ4EFgQUUAIbc459kYInLCL8uLePH9B960wwOAYDVR0jBDEwL6EipCAwHjEL
MAkGA1UEBhMCS1IxDzANBgNVBAMMBmdpbGdpbIIJALz+7+lKvGPwMA0GCSqGSIb3
DQEBCwUAA4GBAImjzCMR0xF493M4MCRiMHer/OH1UAltIVHx9rApLU+8E3F3tDOz
5JqxQFp438jRWfWneVJbc21Yeu4qQZeRPpnHegMqx3kWAwdEzm4fCudhpHLCNjt7
m8R9yxvzM7+tgKZNz45+tM92cFizGIxaGhu5QZml2M2zCFuZrWk3iLs5
-----END CERTIFICATE-----
