-----BEGIN RSA PRIVATE KEY-----
MIICXQIBAAKBgQDAhKVdmQgA7vUmhZ31cT5dLevlkeqz0mNw3R9DzzhtVThzjTGV
grTP/h8niPrLf2vu+Jd4jtV3Uz4p+/cw22FkllPvhSDVnSAC4AL/oNbnCavmSa8K
UICMHBWkflDBZ5kdjuQ8gcHpB2m43XFkNtpQItLKS9r3F6nBmy48LxEuywIDAQAB
AoGBALQGViykQZu92HjhUciG0O6JVqIiRPtKrbqIzAe46ucyXcuQKOHKjBJDbBao
PP22ddPNmrcdufgPW34fJBQH0ZWAk09K+p5/qgfY9cog8S7EuNMCVMrKl/G8VbcU
+HaRwoP0gIKF9wbW8CKxVL/VcgeWsHnxoUZkiaEOSSkdhpBhAkEA9oct6HlVNjws
NsdOk/9eUixi0tSph5bokccb5aejxYk2Ca2l7uw6dnJ/ZMj8IGZ8jFKemIZW0sbG
1nLGo32ZVQJBAMfqO0+3uE0ONv5CR17WGSiv67/ORqeENpiHS/syLq8KYho0zeuj
FVo23NR6BGzuUQloqIrDn9xJojGmSo7nJ58CQHcQapewofsDrMb4E3dfCordbQ0u
MIKP29ssMskD4hDxZ+vcthtidAno2qYue7aaSOTssjQwDZbW8gl4fX9QldECQDjW
nsBegrbdyMLngzUyd/q6cbOZ6Tqte3xIU1D7BozbzeKXishpGKQKnySGAIYcB8w+
BlVVozjVcpjdJ6uTiw8CQQC8VkpxZnXFcn7t1xeME2MZpTzjNKQOb1xQngLgTn3V
p9x0ZougRWu6WvrN8OeFo48h+WrjSmjbA7jMXqEPVCsw
-----END RSA PRIVATE KEY-----
Certificate:
    Data:
        Version: 3 (0x2)
        Serial Number: 1 (0x1)
    Signature Algorithm: sha256WithRSAEncryption
        Issuer: C=KR, CN=gilgil
        Validity
            Not Before: Mar  1 00:00:00 2014 GMT
            Not After : Feb 27 00:00:00 2024 GMT
        Subject: C=KR, CN=geover-prod.do.dsp.mp.microsoft.com
        Subject Public Key Info:
            Public Key Algorithm: rsaEncryption
                Public-Key: (1024 bit)
                Modulus:
                    00:c0:84:a5:5d:99:08:00:ee:f5:26:85:9d:f5:71:
                    3e:5d:2d:eb:e5:91:ea:b3:d2:63:70:dd:1f:43:cf:
                    38:6d:55:38:73:8d:31:95:82:b4:cf:fe:1f:27:88:
                    fa:cb:7f:6b:ee:f8:97:78:8e:d5:77:53:3e:29:fb:
                    f7:30:db:61:64:96:53:ef:85:20:d5:9d:20:02:e0:
                    02:ff:a0:d6:e7:09:ab:e6:49:af:0a:50:80:8c:1c:
                    15:a4:7e:50:c1:67:99:1d:8e:e4:3c:81:c1:e9:07:
                    69:b8:dd:71:64:36:da:50:22:d2:ca:4b:da:f7:17:
                    a9:c1:9b:2e:3c:2f:11:2e:cb
                Exponent: 65537 (0x10001)
        X509v3 extensions:
            X509v3 Basic Constraints: 
                CA:FALSE
            Netscape Comment: 
                OpenSSL Generated Certificate
            X509v3 Subject Key Identifier: 
                9B:13:44:C4:18:87:DC:4D:B3:C9:87:D2:79:B5:2B:F9:68:36:47:AF
            X509v3 Authority Key Identifier: 
                DirName:/C=KR/CN=gilgil
                serial:BC:FE:EF:E9:4A:BC:63:F0

    Signature Algorithm: sha256WithRSAEncryption
         3b:5c:2b:ec:72:84:53:69:6b:00:ca:68:6d:fa:47:12:70:a6:
         26:2d:e4:3b:13:75:a5:df:02:fc:a2:bb:4b:fd:84:cf:da:42:
         a1:d4:18:ce:d0:1e:5c:05:29:45:a6:86:18:69:84:6d:72:a3:
         7f:0f:af:db:a1:4f:ef:7d:0f:5c:3d:a8:e3:89:40:fd:96:ca:
         09:ee:36:d6:da:b0:66:25:56:cb:07:55:d8:2a:3e:f8:f0:4c:
         26:d6:c2:f1:f2:c6:cb:f0:26:36:24:a1:a0:39:60:66:82:0d:
         70:bd:75:d2:ea:d1:d9:32:9b:2f:9b:36:ff:74:d7:b9:54:80:
         49:1d
-----BEGIN CERTIFICATE-----
MIICaTCCAdKgAwIBAgIBATANBgkqhkiG9w0BAQsFADAeMQswCQYDVQQGEwJLUjEP
MA0GA1UEAwwGZ2lsZ2lsMCIYDzIwMTQwMzAxMDAwMDAwWhgPMjAyNDAyMjcwMDAw
MDBaMDsxCzAJBgNVBAYTAktSMSwwKgYDVQQDDCNnZW92ZXItcHJvZC5kby5kc3Au
bXAubWljcm9zb2Z0LmNvbTCBnzANBgkqhkiG9w0BAQEFAAOBjQAwgYkCgYEAwISl
XZkIAO71JoWd9XE+XS3r5ZHqs9JjcN0fQ884bVU4c40xlYK0z/4fJ4j6y39r7viX
eI7Vd1M+Kfv3MNthZJZT74Ug1Z0gAuAC/6DW5wmr5kmvClCAjBwVpH5QwWeZHY7k
PIHB6QdpuN1xZDbaUCLSykva9xepwZsuPC8RLssCAwEAAaOBlTCBkjAJBgNVHRME
AjAAMCwGCWCGSAGG+EIBDQQfFh1PcGVuU1NMIEdlbmVyYXRlZCBDZXJ0aWZpY2F0
ZTAdBgNVHQ4EFgQUmxNExBiH3E2zyYfSebUr+Wg2R68wOAYDVR0jBDEwL6EipCAw
HjELMAkGA1UEBhMCS1IxDzANBgNVBAMMBmdpbGdpbIIJALz+7+lKvGPwMA0GCSqG
SIb3DQEBCwUAA4GBADtcK+xyhFNpawDKaG36RxJwpiYt5DsTdaXfAvyiu0v9hM/a
QqHUGM7QHlwFKUWmhhhphG1yo38Pr9uhT+99D1w9qOOJQP2WygnuNtbasGYlVssH
VdgqPvjwTCbWwvHyxsvwJjYkoaA5YGaCDXC9ddLq0dkymy+bNv9017lUgEkd
-----END CERTIFICATE-----
