-----BEGIN RSA PRIVATE KEY-----
MIICXQIBAAKBgQDKTGh+tQjuaSKOGWDMRLP6XjU1rO+HK/R4NeE/VsMlPVtXkbgA
XMuFKxwJBetSUo4h2gdOOuYnT5r+hY/WzX0XYb1UgUHSn2VL3zNdk8WFQz/TGLaL
A2dJbanfjq7A58qV0t9usMkDnDobQnpvpl63nmIcQg18WiQzeLv4ubDHCQIDAQAB
AoGBAIu1+1DOnE1y5H94vWY1aIrXty3Lsl0LGTpQE7DXrcwxNL0kkQwHCjN9E06T
/PIMu8ZbOkJn4P1zN9rhyPYTUniyEvYzqLtIdrkYG8T4+rwffYYq0h8luEYk2ZWp
VwiDF2wobn9sOOswPzeIolDPChZRwb93lsV15+xwhloowxd1AkEA50PACQuNfd9C
q4elrtmLgDkaRJtRYKmstSGPcuhMr3ZJ1G2WEapce3fSFlSklsHvbKE3JsAZbmjq
pZ1qrLGC+wJBAN/viTjGE4gaLr4CDti8DRIG2qCZtOfA+nPnMNp4x6Kf2uVMueNT
E6Z6Tsi8tkRoKsZtzknBHYFq677iEJqVnssCQBaOTRSUw+Aa/m2sdURwg2KmLyGx
5GYBJo8kDtGuRox2hQzrA1AFxa9lKGB1MPhjQe7eanqlEdXq9bfhep4NUjECQQCi
/OFPZTvKD+R9f1n2/cg1mq99vOIi3B5uRZMVMFt9TgQwaMvTXSAsR1EYYeH3oCmi
C0HeBKTJEV1MrZWQLd5JAkAN4vy1THfPuDmVzmf11tfcU2aBP1hqW7ivlXR8Vc8S
dB9tXAcK6K1ksjID+SRqCSnErNshaK3miH6Mp7rzPLV/
-----END RSA PRIVATE KEY-----
Certificate:
    Data:
        Version: 3 (0x2)
        Serial Number: 1 (0x1)
    Signature Algorithm: sha256WithRSAEncryption
        Issuer: C=KR, CN=gilgil
        Validity
            Not Before: Mar  1 00:00:00 2014 GMT
            Not After : Feb 27 00:00:00 2024 GMT
        Subject: C=KR, CN=iecvlist.microsoft.com
        Subject Public Key Info:
            Public Key Algorithm: rsaEncryption
                Public-Key: (1024 bit)
                Modulus:
                    00:ca:4c:68:7e:b5:08:ee:69:22:8e:19:60:cc:44:
                    b3:fa:5e:35:35:ac:ef:87:2b:f4:78:35:e1:3f:56:
                    c3:25:3d:5b:57:91:b8:00:5c:cb:85:2b:1c:09:05:
                    eb:52:52:8e:21:da:07:4e:3a:e6:27:4f:9a:fe:85:
                    8f:d6:cd:7d:17:61:bd:54:81:41:d2:9f:65:4b:df:
                    33:5d:93:c5:85:43:3f:d3:18:b6:8b:03:67:49:6d:
                    a9:df:8e:ae:c0:e7:ca:95:d2:df:6e:b0:c9:03:9c:
                    3a:1b:42:7a:6f:a6:5e:b7:9e:62:1c:42:0d:7c:5a:
                    24:33:78:bb:f8:b9:b0:c7:09
                Exponent: 65537 (0x10001)
        X509v3 extensions:
            X509v3 Basic Constraints: 
                CA:FALSE
            Netscape Comment: 
                OpenSSL Generated Certificate
            X509v3 Subject Key Identifier: 
                2F:EC:F9:D1:21:6F:50:CA:EF:72:9C:AE:41:B6:A2:89:4F:33:BB:8D
            X509v3 Authority Key Identifier: 
                DirName:/C=KR/CN=gilgil
                serial:BC:FE:EF:E9:4A:BC:63:F0

    Signature Algorithm: sha256WithRSAEncryption
         7a:e9:7c:71:d1:71:99:b7:fc:24:8e:97:85:4a:97:3c:f7:30:
         03:56:0a:9e:15:f5:2c:0c:bf:2c:d3:5c:b8:01:f0:75:1f:c1:
         0a:e2:74:a6:0a:e9:c3:73:7c:6d:0b:fe:5f:dd:69:ba:9a:e3:
         48:ff:91:1b:f0:66:a4:59:17:0d:73:6c:fe:be:ed:b4:4e:d4:
         d8:79:04:f6:13:1e:41:f9:2e:e2:56:88:3a:0e:0d:77:f0:98:
         fe:44:c5:f9:e6:5a:e2:b7:fe:8b:46:b1:3c:e7:8c:31:3c:7e:
         0b:bf:91:45:a7:29:be:4d:0b:e4:ec:5f:0c:a3:ef:e5:91:7e:
         f1:ee
-----BEGIN CERTIFICATE-----
MIICXDCCAcWgAwIBAgIBATANBgkqhkiG9w0BAQsFADAeMQswCQYDVQQGEwJLUjEP
MA0GA1UEAwwGZ2lsZ2lsMCIYDzIwMTQwMzAxMDAwMDAwWhgPMjAyNDAyMjcwMDAw
MDBaMC4xCzAJBgNVBAYTAktSMR8wHQYDVQQDDBZpZWN2bGlzdC5taWNyb3NvZnQu
Y29tMIGfMA0GCSqGSIb3DQEBAQUAA4GNADCBiQKBgQDKTGh+tQjuaSKOGWDMRLP6
XjU1rO+HK/R4NeE/VsMlPVtXkbgAXMuFKxwJBetSUo4h2gdOOuYnT5r+hY/WzX0X
Yb1UgUHSn2VL3zNdk8WFQz/TGLaLA2dJbanfjq7A58qV0t9usMkDnDobQnpvpl63
nmIcQg18WiQzeLv4ubDHCQIDAQABo4GVMIGSMAkGA1UdEwQCMAAwLAYJYIZIAYb4
QgENBB8WHU9wZW5TU0wgR2VuZXJhdGVkIENlcnRpZmljYXRlMB0GA1UdDgQWBBQv
7PnRIW9Qyu9ynK5BtqKJTzO7jTA4BgNVHSMEMTAvoSKkIDAeMQswCQYDVQQGEwJL
UjEPMA0GA1UEAwwGZ2lsZ2lsggkAvP7v6Uq8Y/AwDQYJKoZIhvcNAQELBQADgYEA
eul8cdFxmbf8JI6XhUqXPPcwA1YKnhX1LAy/LNNcuAHwdR/BCuJ0pgrpw3N8bQv+
X91puprjSP+RG/BmpFkXDXNs/r7ttE7U2HkE9hMeQfku4laIOg4Nd/CY/kTF+eZa
4rf+i0axPOeMMTx+C7+RRacpvk0L5OxfDKPv5ZF+8e4=
-----END CERTIFICATE-----
