-----BEGIN RSA PRIVATE KEY-----
MIICXwIBAAKBgQDF7/FDee8qRWQqQ9AyJ+IzZEP7dGoZllnHmYRdz9TsDVTF6Ofh
OeZxwCWsNd+og/HAZ/tl++xsFkA5kuDoVrCkStuqhV0WZPHyzJKIdpbOcw3pZbmT
FKGBtzC5BAzDWNLNGYZkZsnuznwuwN+SkalFNhDudVbQIXKcLTTSLtl5GwIDAQAB
AoGBALDbJCoTP/P4DniJIPQ/mKgslWWO7eIw6cUjURb1RR0pCC7RXKZsMpA+jCqj
9FRAmHg/MGw+PU+STg5jQ1u1YZvH1ROQXZ857OmmJBxBX72Dfpavb9RufkRny5qS
pR0lf4JrvBUgc93VCAM5F5NKyRD12E7f9ufrrhM4N6IzseL5AkEA6VDvdr1dzkfq
AAZIc33PHYLFM9lp6GbTAdtyXbwVRAg97b9zIWjgL1TEB4ZL5VTYn9qNVOvwlsBI
s3JOvxMF9QJBANkudASGM0E1NVj2cIYhJ9r8+Clvj6RmAM5mqTp+nrCVB/wgZ0Sm
KTqdvSC2WIfJ5DMov9Pa3cghFzV+oogoCM8CQQDTLRRxTtj2+pRLzWQKVJcASPqh
AWogleDqz2tmd/RvjV4wMJbOaJRxgrGjdeSAABnKJhDCCoPKjuO+t/mabGd5AkEA
01iBTmXKOwqsf4ZSujRJtLG4TZpjDni1ECaXSHUvuGdO/ewKkqOgO4qFIfBQ9tNh
XueoxWGXscmB7GzvfdB3wQJBAI++oG6Y5OG/cWI7egGasNO6nJ6f6Q2yKvFQF4Sc
yXC4VXjzK48YlugmpBi/oEEQieAEpmOvHROAnBlNPPZYmug=
-----END RSA PRIVATE KEY-----
Certificate:
    Data:
        Version: 3 (0x2)
        Serial Number: 4 (0x4)
    Signature Algorithm: sha256WithRSAEncryption
        Issuer: C=KR, CN=gilgil
        Validity
            Not Before: Mar  1 00:00:00 2014 GMT
            Not After : Feb 27 00:00:00 2024 GMT
        Subject: C=KR, CN=img-s-msn-com.akamaized.net
        Subject Public Key Info:
            Public Key Algorithm: rsaEncryption
                Public-Key: (1024 bit)
                Modulus:
                    00:c5:ef:f1:43:79:ef:2a:45:64:2a:43:d0:32:27:
                    e2:33:64:43:fb:74:6a:19:96:59:c7:99:84:5d:cf:
                    d4:ec:0d:54:c5:e8:e7:e1:39:e6:71:c0:25:ac:35:
                    df:a8:83:f1:c0:67:fb:65:fb:ec:6c:16:40:39:92:
                    e0:e8:56:b0:a4:4a:db:aa:85:5d:16:64:f1:f2:cc:
                    92:88:76:96:ce:73:0d:e9:65:b9:93:14:a1:81:b7:
                    30:b9:04:0c:c3:58:d2:cd:19:86:64:66:c9:ee:ce:
                    7c:2e:c0:df:92:91:a9:45:36:10:ee:75:56:d0:21:
                    72:9c:2d:34:d2:2e:d9:79:1b
                Exponent: 65537 (0x10001)
        X509v3 extensions:
            X509v3 Basic Constraints: 
                CA:FALSE
            Netscape Comment: 
                OpenSSL Generated Certificate
            X509v3 Subject Key Identifier: 
                F9:1E:AF:61:1E:B8:F2:29:48:CF:29:F1:1F:9E:F1:43:8B:2B:B7:B4
            X509v3 Authority Key Identifier: 
                DirName:/C=KR/CN=gilgil
                serial:BC:FE:EF:E9:4A:BC:63:F0

    Signature Algorithm: sha256WithRSAEncryption
         07:fa:89:ef:36:1f:ad:89:0f:d6:fe:d3:8f:0a:1b:77:14:d8:
         c0:9a:0c:f3:5a:38:2d:41:92:b4:89:83:88:06:f3:18:72:09:
         ac:1a:cf:b7:ef:08:87:29:18:76:c4:21:c5:70:3c:e0:16:f7:
         10:ac:bb:ca:2c:45:a7:61:5c:55:0e:3f:3a:62:07:92:42:ac:
         2e:f7:20:d8:b2:2e:92:5a:22:f5:93:a0:17:a6:96:90:58:f7:
         91:a4:4b:d7:d8:87:46:2b:8e:d1:38:5c:ae:00:c8:c7:3d:ac:
         8c:5e:38:ef:82:3c:aa:cd:46:1e:07:e1:bc:bd:e2:89:1b:f6:
         25:22
-----BEGIN CERTIFICATE-----
MIICYTCCAcqgAwIBAgIBBDANBgkqhkiG9w0BAQsFADAeMQswCQYDVQQGEwJLUjEP
MA0GA1UEAwwGZ2lsZ2lsMCIYDzIwMTQwMzAxMDAwMDAwWhgPMjAyNDAyMjcwMDAw
MDBaMDMxCzAJBgNVBAYTAktSMSQwIgYDVQQDDBtpbWctcy1tc24tY29tLmFrYW1h
aXplZC5uZXQwgZ8wDQYJKoZIhvcNAQEBBQADgY0AMIGJAoGBAMXv8UN57ypFZCpD
0DIn4jNkQ/t0ahmWWceZhF3P1OwNVMXo5+E55nHAJaw136iD8cBn+2X77GwWQDmS
4OhWsKRK26qFXRZk8fLMkoh2ls5zDelluZMUoYG3MLkEDMNY0s0ZhmRmye7OfC7A
35KRqUU2EO51VtAhcpwtNNIu2XkbAgMBAAGjgZUwgZIwCQYDVR0TBAIwADAsBglg
hkgBhvhCAQ0EHxYdT3BlblNTTCBHZW5lcmF0ZWQgQ2VydGlmaWNhdGUwHQYDVR0O
BBYEFPker2EeuPIpSM8p8R+e8UOLK7e0MDgGA1UdIwQxMC+hIqQgMB4xCzAJBgNV
BAYTAktSMQ8wDQYDVQQDDAZnaWxnaWyCCQC8/u/pSrxj8DANBgkqhkiG9w0BAQsF
AAOBgQAH+onvNh+tiQ/W/tOPCht3FNjAmgzzWjgtQZK0iYOIBvMYcgmsGs+37wiH
KRh2xCHFcDzgFvcQrLvKLEWnYVxVDj86YgeSQqwu9yDYsi6SWiL1k6AXppaQWPeR
pEvX2IdGK47ROFyuAMjHPayMXjjvgjyqzUYeB+G8veKJG/YlIg==
-----END CERTIFICATE-----
