-----BEGIN RSA PRIVATE KEY-----
MIICWwIBAAKBgQDBxgBKhH2tsYGyZmoZ4W0WWmBxFuKrvA86b/ZMsMo1n0+KfCp0
TmUBETUpNEPlPUws3JQl1o9R4S2OEffMBMtEkrFajyFEej0KmJjpFV5FD+HMsv+b
iY1hWvrxinRUpApntXOm0ywGqXgX4d1op+q2TefjZCz5Zvl9HNoiuUm/TwIDAQAB
AoGAQIw7dpcx4lU59fqFp39fPk32yFUuRrTLgdTf/+X4Rep+rYv0/G9M2BEqW0Js
x4Umxd7ofr49WbIf4a58k/qY1vaWtvFiItZUi3MuS1DjFgnofqrVx5Cj2cA+F2wG
jyipLXrJwwIEQmawfKL6dUc14pWgVh8ilNgZajtqUPqQlyECQQD4z+dXepdy6nUy
044PJ9Q40cYFzEr1CvMJyIbUOz8YMspEbQjLyDtWQl6i5uGHzocjtE99CiSMI7aj
n8NmY+xfAkEAx18OuHoT4DLdur5lXWfhXfsWbtuAoVJWENgUi2Xyh0zXtep26Xv4
IePGgMtNGFtkZZvLKgD0Og/+Qht382QTEQJANqSqQPsKcdFuBciSZV+w6v2fCLzy
JVjPQXHJsqiEVdMputdbXC3QYkRXNl2QYFwKL9w0rNhiaGibftnidwUw7wJAXBjb
MfiiqdSVfKhrJsTP5JwSds9LEjp4q3tFskc7y6iBlPVkTOMJco5HqkM/r9q3/AAF
z7d1GkU9DMinlnVKIQJAf7jkz6EWtg6qkM2wCVRHzpSKaYd+baQ10IKUoXYNIGzo
jGoY+GPuDeOCTn+3WE+pd+N9xS08w76gvbrW0z5khA==
-----END RSA PRIVATE KEY-----
Certificate:
    Data:
        Version: 3 (0x2)
        Serial Number: 15 (0xf)
    Signature Algorithm: sha256WithRSAEncryption
        Issuer: C=KR, CN=gilgil
        Validity
            Not Before: Mar  1 00:00:00 2014 GMT
            Not After : Feb 27 00:00:00 2024 GMT
        Subject: C=KR, CN=img-prod-cms-rt-microsoft-com.akamaized.net
        Subject Public Key Info:
            Public Key Algorithm: rsaEncryption
                Public-Key: (1024 bit)
                Modulus:
                    00:c1:c6:00:4a:84:7d:ad:b1:81:b2:66:6a:19:e1:
                    6d:16:5a:60:71:16:e2:ab:bc:0f:3a:6f:f6:4c:b0:
                    ca:35:9f:4f:8a:7c:2a:74:4e:65:01:11:35:29:34:
                    43:e5:3d:4c:2c:dc:94:25:d6:8f:51:e1:2d:8e:11:
                    f7:cc:04:cb:44:92:b1:5a:8f:21:44:7a:3d:0a:98:
                    98:e9:15:5e:45:0f:e1:cc:b2:ff:9b:89:8d:61:5a:
                    fa:f1:8a:74:54:a4:0a:67:b5:73:a6:d3:2c:06:a9:
                    78:17:e1:dd:68:a7:ea:b6:4d:e7:e3:64:2c:f9:66:
                    f9:7d:1c:da:22:b9:49:bf:4f
                Exponent: 65537 (0x10001)
        X509v3 extensions:
            X509v3 Basic Constraints: 
                CA:FALSE
            Netscape Comment: 
                OpenSSL Generated Certificate
            X509v3 Subject Key Identifier: 
                C8:F5:BC:CB:50:30:5A:48:8E:AC:62:09:DF:0D:6E:3F:4A:C1:DE:06
            X509v3 Authority Key Identifier: 
                DirName:/C=KR/CN=gilgil
                serial:BC:FE:EF:E9:4A:BC:63:F0

    Signature Algorithm: sha256WithRSAEncryption
         bc:e0:ec:eb:1e:d0:9b:1b:8c:bc:07:f9:8d:7e:88:07:93:7a:
         7c:21:a3:44:dc:db:cd:96:b8:b7:17:9c:c4:13:b2:6f:76:98:
         2d:dd:90:86:c7:d9:3c:9f:a1:e7:d4:7c:00:3c:58:70:ff:6b:
         3a:7b:6b:3a:42:96:4b:58:93:83:1c:00:f9:0d:f7:28:28:2c:
         a2:b8:f9:29:fb:36:ca:16:31:73:75:b0:44:dd:37:8d:6a:d7:
         e5:ab:dd:07:9e:17:e8:2f:9e:2a:ea:50:2e:a5:02:2e:3d:51:
         ae:c5:55:12:e0:87:4e:e8:51:7b:ef:6d:17:23:b0:ba:9f:04:
         bf:4e
-----BEGIN CERTIFICATE-----
MIICcTCCAdqgAwIBAgIBDzANBgkqhkiG9w0BAQsFADAeMQswCQYDVQQGEwJLUjEP
MA0GA1UEAwwGZ2lsZ2lsMCIYDzIwMTQwMzAxMDAwMDAwWhgPMjAyNDAyMjcwMDAw
MDBaMEMxCzAJBgNVBAYTAktSMTQwMgYDVQQDDCtpbWctcHJvZC1jbXMtcnQtbWlj
cm9zb2Z0LWNvbS5ha2FtYWl6ZWQubmV0MIGfMA0GCSqGSIb3DQEBAQUAA4GNADCB
iQKBgQDBxgBKhH2tsYGyZmoZ4W0WWmBxFuKrvA86b/ZMsMo1n0+KfCp0TmUBETUp
NEPlPUws3JQl1o9R4S2OEffMBMtEkrFajyFEej0KmJjpFV5FD+HMsv+biY1hWvrx
inRUpApntXOm0ywGqXgX4d1op+q2TefjZCz5Zvl9HNoiuUm/TwIDAQABo4GVMIGS
MAkGA1UdEwQCMAAwLAYJYIZIAYb4QgENBB8WHU9wZW5TU0wgR2VuZXJhdGVkIENl
cnRpZmljYXRlMB0GA1UdDgQWBBTI9bzLUDBaSI6sYgnfDW4/SsHeBjA4BgNVHSME
MTAvoSKkIDAeMQswCQYDVQQGEwJLUjEPMA0GA1UEAwwGZ2lsZ2lsggkAvP7v6Uq8
Y/AwDQYJKoZIhvcNAQELBQADgYEAvODs6x7QmxuMvAf5jX6IB5N6fCGjRNzbzZa4
txecxBOyb3aYLd2QhsfZPJ+h59R8ADxYcP9rOntrOkKWS1iTgxwA+Q33KCgsorj5
Kfs2yhYxc3WwRN03jWrX5avdB54X6C+eKupQLqUCLj1RrsVVEuCHTuhRe+9tFyOw
up8Ev04=
-----END CERTIFICATE-----
