-----BEGIN RSA PRIVATE KEY-----
MIICXAIBAAKBgQCkoEPb+9n3rWJ/w+McQMe/YVBLs4VV0fA9MeWVna+O5oxYIXoR
jZtRUtp1ef9sEn2n/0lblTy4k2sLrAwUAdRaMIAZFb1PDRyHmVHt79yAzNpsv5Um
mQtZXnsWj6nhZwNuyLkSmUxVzLiW8DSJHh378wqY8i9EdjEVw29y2ed0VwIDAQAB
AoGAFhpKYhuzTRSjV+IV+PIdn21SWYeVzEruhVjQqUDNlFMR3rdH61lm1AlauVES
4RCufELDN5+W0nVAdwW3bWw9dVM1IRFQSGR7iJ9m5QeDWdNryLwhh604GVAXWjTG
7d9Q4APLsQDyZzOxRBNBru6URVnx/zLx8zeYJh0VeYgoNHkCQQDbOKStaI7rnzOl
4aIeJclC4hUbkYktqZYbt+Tl5C3O7fq2fnP93LfTG8ORs7tMp76yH+U1igWDQbOs
ZMnvVNoVAkEAwD7OREXrx2qAO/SapxRj9TkDpe03zPhtG3dHTjV2bk/V+5oruYHx
LoV4Qoz1ulN5RMa1Vrlf1rP7NMJBaOhLuwJBANQNjK348BbXnrwc8Ba9cltyGfza
4Jj87CjPz2jZOb5q0RPqagTslhxtRNYRx2G0+W+QDsWlRwPacBSYQgVyTKkCQG6I
be5BSYRZzqsqQ3VHOwW2p0tSrh+ywoDlPuFPye05B+5mwTci6Dn4UaHqDCr6baJG
oeLgKKN4zjmSaytXTJsCQE1jYv0RSTr5e7rEW9rR1TJwXAFwJCG2opcFJY4Jjwjc
mp4ydrXx+fIxXuNZib/He9Ffb8Co3FhxR2TxZWpwsyY=
-----END RSA PRIVATE KEY-----
Certificate:
    Data:
        Version: 3 (0x2)
        Serial Number: 2 (0x2)
    Signature Algorithm: sha256WithRSAEncryption
        Issuer: C=KR, CN=gilgil
        Validity
            Not Before: Mar  1 00:00:00 2014 GMT
            Not After : Feb 27 00:00:00 2024 GMT
        Subject: C=KR, CN=kv701-prod.do.dsp.mp.microsoft.com
        Subject Public Key Info:
            Public Key Algorithm: rsaEncryption
                Public-Key: (1024 bit)
                Modulus:
                    00:a4:a0:43:db:fb:d9:f7:ad:62:7f:c3:e3:1c:40:
                    c7:bf:61:50:4b:b3:85:55:d1:f0:3d:31:e5:95:9d:
                    af:8e:e6:8c:58:21:7a:11:8d:9b:51:52:da:75:79:
                    ff:6c:12:7d:a7:ff:49:5b:95:3c:b8:93:6b:0b:ac:
                    0c:14:01:d4:5a:30:80:19:15:bd:4f:0d:1c:87:99:
                    51:ed:ef:dc:80:cc:da:6c:bf:95:26:99:0b:59:5e:
                    7b:16:8f:a9:e1:67:03:6e:c8:b9:12:99:4c:55:cc:
                    b8:96:f0:34:89:1e:1d:fb:f3:0a:98:f2:2f:44:76:
                    31:15:c3:6f:72:d9:e7:74:57
                Exponent: 65537 (0x10001)
        X509v3 extensions:
            X509v3 Basic Constraints: 
                CA:FALSE
            Netscape Comment: 
                OpenSSL Generated Certificate
            X509v3 Subject Key Identifier: 
                2B:E2:F0:83:70:56:85:DD:7B:AF:F6:0A:26:E0:7A:0C:91:9E:80:7B
            X509v3 Authority Key Identifier: 
                DirName:/C=KR/CN=gilgil
                serial:BC:FE:EF:E9:4A:BC:63:F0

    Signature Algorithm: sha256WithRSAEncryption
         a7:67:d3:4a:00:ef:b9:5b:ab:1b:0a:c2:6f:50:a7:9c:92:67:
         1e:fb:6e:3d:78:e6:40:99:49:db:b4:00:25:35:25:9d:e2:f5:
         6b:ad:6e:83:47:d9:2e:41:b0:05:c5:8a:d5:d2:1d:db:24:9f:
         f3:a0:6d:e1:45:15:d9:44:5a:4a:6e:7e:ce:a1:0b:16:3a:c8:
         02:84:19:61:fd:ad:a9:f1:00:7c:66:91:3f:e3:24:89:ed:6e:
         85:60:9d:7a:4c:84:04:e5:f7:b7:54:0f:04:db:cd:6a:50:18:
         85:16:a6:6f:1d:15:50:44:3f:98:3a:e0:ce:fe:41:56:a3:5b:
         17:49
-----BEGIN CERTIFICATE-----
MIICaDCCAdGgAwIBAgIBAjANBgkqhkiG9w0BAQsFADAeMQswCQYDVQQGEwJLUjEP
MA0GA1UEAwwGZ2lsZ2lsMCIYDzIwMTQwMzAxMDAwMDAwWhgPMjAyNDAyMjcwMDAw
MDBaMDoxCzAJBgNVBAYTAktSMSswKQYDVQQDDCJrdjcwMS1wcm9kLmRvLmRzcC5t
cC5taWNyb3NvZnQuY29tMIGfMA0GCSqGSIb3DQEBAQUAA4GNADCBiQKBgQCkoEPb
+9n3rWJ/w+McQMe/YVBLs4VV0fA9MeWVna+O5oxYIXoRjZtRUtp1ef9sEn2n/0lb
lTy4k2sLrAwUAdRaMIAZFb1PDRyHmVHt79yAzNpsv5UmmQtZXnsWj6nhZwNuyLkS
mUxVzLiW8DSJHh378wqY8i9EdjEVw29y2ed0VwIDAQABo4GVMIGSMAkGA1UdEwQC
MAAwLAYJYIZIAYb4QgENBB8WHU9wZW5TU0wgR2VuZXJhdGVkIENlcnRpZmljYXRl
MB0GA1UdDgQWBBQr4vCDcFaF3Xuv9gom4HoMkZ6AezA4BgNVHSMEMTAvoSKkIDAe
MQswCQYDVQQGEwJLUjEPMA0GA1UEAwwGZ2lsZ2lsggkAvP7v6Uq8Y/AwDQYJKoZI
hvcNAQELBQADgYEAp2fTSgDvuVurGwrCb1CnnJJnHvtuPXjmQJlJ27QAJTUlneL1
a61ug0fZLkGwBcWK1dId2ySf86Bt4UUV2URaSm5+zqELFjrIAoQZYf2tqfEAfGaR
P+Mkie1uhWCdekyEBOX3t1QPBNvNalAYhRambx0VUEQ/mDrgzv5BVqNbF0k=
-----END CERTIFICATE-----
