-----BEGIN RSA PRIVATE KEY-----
MIICXAIBAAKBgQDaVAgo7ysT3RhVY4ZJk0h15KrA7W6Vr+dcYxhd3FobnToulNnW
vgXq/aYtNnGvhW9uTtVdm/oe5DpbV2I6cP7v+hVgf2Obq2v1RS0aeX4Kt9ogsDAx
bDqEgMs8FYfHnBHcvY/JUpUF4M2EslWg/UeWXncPfbdQdP6CY4kPzqR6pwIDAQAB
AoGAQgSQ5xfS9dGwLvnGPG89xPBdNbNV8gtbsVMBpjggQyNa2YUHDektzu3eFuPU
opd9p2RNHl4w1rB6eO5GdJeAbq8rzfEkJwb0i3mW4JVwOYm2oXdviyihYfeObv9r
qsGn2ZEV7cq3Vl4sCAm7a+aaxv1yXS4o6zN3jk5ghmWzzukCQQDz4KbGngy4gg5i
to6bp3CX/ZCSIqFHNTKsrGiy0jDuky4vKCxcEKNEWQh1zRJoL9zN5cT99xOFNc/g
kIR85SQlAkEA5S5D0WsdqvOwNosISmR1BjDgs0Vf+7oqr+5tTs6Et51pUMdMwihx
/Xp9UxvHDCn1Kpl/txqpKQ2yRFvI5b+j2wJAMhwk6IatInRGtG3CW6VJ81D8lapb
7R+3K9e5I5UgzMSdJr9gbgJVKcQJgvsCHzpGamAd2/kan7Jw5jmLn4YNqQJADNgn
8t+2/PLFaHkoUMsKh/tLTKDRvVD0vYF2XNlUNNo8octZsPQFV3h696Jx6GudkvKh
Zsi2vFdJK22dd8riywJBAJw3OU1+5gkhUdxvNTM6xM/NiupYQQKO7TX+5w/ZVQdl
u/haxnNOF5EM6Q0QicpC7TQTLyZ3t1lUeCWUp5BB2i8=
-----END RSA PRIVATE KEY-----
Certificate:
    Data:
        Version: 3 (0x2)
        Serial Number: 5 (0x5)
    Signature Algorithm: sha256WithRSAEncryption
        Issuer: C=KR, CN=gilgil
        Validity
            Not Before: Mar  1 00:00:00 2014 GMT
            Not After : Feb 27 00:00:00 2024 GMT
        Subject: C=KR, CN=lcs.naver.com
        Subject Public Key Info:
            Public Key Algorithm: rsaEncryption
                Public-Key: (1024 bit)
                Modulus:
                    00:da:54:08:28:ef:2b:13:dd:18:55:63:86:49:93:
                    48:75:e4:aa:c0:ed:6e:95:af:e7:5c:63:18:5d:dc:
                    5a:1b:9d:3a:2e:94:d9:d6:be:05:ea:fd:a6:2d:36:
                    71:af:85:6f:6e:4e:d5:5d:9b:fa:1e:e4:3a:5b:57:
                    62:3a:70:fe:ef:fa:15:60:7f:63:9b:ab:6b:f5:45:
                    2d:1a:79:7e:0a:b7:da:20:b0:30:31:6c:3a:84:80:
                    cb:3c:15:87:c7:9c:11:dc:bd:8f:c9:52:95:05:e0:
                    cd:84:b2:55:a0:fd:47:96:5e:77:0f:7d:b7:50:74:
                    fe:82:63:89:0f:ce:a4:7a:a7
                Exponent: 65537 (0x10001)
        X509v3 extensions:
            X509v3 Basic Constraints: 
                CA:FALSE
            Netscape Comment: 
                OpenSSL Generated Certificate
            X509v3 Subject Key Identifier: 
                77:4B:FF:7F:76:DB:9A:49:84:CB:9B:84:F3:C8:30:63:0F:8A:C8:8B
            X509v3 Authority Key Identifier: 
                DirName:/C=KR/CN=gilgil
                serial:BC:FE:EF:E9:4A:BC:63:F0

    Signature Algorithm: sha256WithRSAEncryption
         79:e8:54:b6:87:a6:e2:22:8a:cc:63:0e:8b:34:51:6e:ca:bc:
         fb:b3:ab:cd:f2:e5:05:0a:2e:71:b2:35:29:b4:d3:de:db:7f:
         91:8e:ee:47:64:8f:e6:06:28:04:44:61:3f:5d:ed:e3:79:89:
         0f:f0:83:bf:0f:33:22:77:0c:46:f8:d1:3e:bf:17:03:d0:d1:
         7e:af:1d:14:7f:f9:aa:19:d4:10:92:cb:67:21:8e:b9:c9:6d:
         38:c3:eb:69:42:1a:ac:fe:01:ea:19:8f:8c:1f:9b:1b:30:2e:
         33:57:06:81:d4:69:c3:9a:52:ac:6e:ca:ce:ac:df:a4:f4:32:
         f1:9a
-----BEGIN CERTIFICATE-----
MIICUzCCAbygAwIBAgIBBTANBgkqhkiG9w0BAQsFADAeMQswCQYDVQQGEwJLUjEP
MA0GA1UEAwwGZ2lsZ2lsMCIYDzIwMTQwMzAxMDAwMDAwWhgPMjAyNDAyMjcwMDAw
MDBaMCUxCzAJBgNVBAYTAktSMRYwFAYDVQQDDA1sY3MubmF2ZXIuY29tMIGfMA0G
CSqGSIb3DQEBAQUAA4GNADCBiQKBgQDaVAgo7ysT3RhVY4ZJk0h15KrA7W6Vr+dc
Yxhd3FobnToulNnWvgXq/aYtNnGvhW9uTtVdm/oe5DpbV2I6cP7v+hVgf2Obq2v1
RS0aeX4Kt9ogsDAxbDqEgMs8FYfHnBHcvY/JUpUF4M2EslWg/UeWXncPfbdQdP6C
Y4kPzqR6pwIDAQABo4GVMIGSMAkGA1UdEwQCMAAwLAYJYIZIAYb4QgENBB8WHU9w
ZW5TU0wgR2VuZXJhdGVkIENlcnRpZmljYXRlMB0GA1UdDgQWBBR3S/9/dtuaSYTL
m4TzyDBjD4rIizA4BgNVHSMEMTAvoSKkIDAeMQswCQYDVQQGEwJLUjEPMA0GA1UE
AwwGZ2lsZ2lsggkAvP7v6Uq8Y/AwDQYJKoZIhvcNAQELBQADgYEAeehUtoem4iKK
zGMOizRRbsq8+7OrzfLlBQoucbI1KbTT3tt/kY7uR2SP5gYoBERhP13t43mJD/CD
vw8zIncMRvjRPr8XA9DRfq8dFH/5qhnUEJLLZyGOucltOMPraUIarP4B6hmPjB+b
GzAuM1cGgdRpw5pSrG7KzqzfpPQy8Zo=
-----END CERTIFICATE-----
