-----BEGIN RSA PRIVATE KEY-----
MIICXQIBAAKBgQC9DOLH8anbXJBwdmm7dqBBgmdPdN36HdrpYyET09rw/kAVrpwx
FWuQh06sxDNZy19z8SYm6fuYRZbA9RJNGJ0ywKIKv+6ElNBlLScdCYO023NxjV81
RKJj+gZ0QLFNU3I/ZWctiuJjTsXYsf9RrnRsHJDUA9zZTU7ShFY7GJxMvwIDAQAB
AoGBALyjSP7dwvFh8bZmUaZ+/fWgG1oLcRuMAs3y3iScttDVwjhgXPYVO5mhif2W
YO7uobZdIAagXy5X8c9kOvi24NL2kczuoHgzcrlLUIYY6CEx0SKAqMuiLAm2SwxI
432VeEtmUSs6LooK+bS98VWpV8eebm0zocRE7+EbqlhJu+mBAkEA34GLegY61eww
lPX7X/5ecuzfo6FSXnnOCOG7hiV+WOQ0DrfIigjUXKB2pUz3pnAwo/MrR2NO80zQ
khHVC1DwoQJBANiI97hKVU1iUc5bW6xEomq9eAuZXlmq/GOjeHT1bxhoucTT67g5
gfFrOxNuAoTMAVImRuIjdrRoAHnoLvKmYV8CQQCZbtcPF8PAI3peaFb+2SKBhrco
H5DqJngYhM41Evwfjdlm2SekCteuFsIcTDAeZBogEsj9IuGKCIuOGwvDzvbBAkAq
aDCzrAMmw6Gn22aJx2tTokW3Z9L9lqoVTXeS2FpommH/dU2N591WDZ0lQf9GSLnd
f9eUBEQEMvYc6eb/6KvbAkBRDpfegPnXCXtQwK2cZ9TAsrN7IT9ZIwXffSJ+KRCa
jihMbIRs8+t5nwH211AwRsEqUZ6h21U5vU6k5o0+yAeU
-----END RSA PRIVATE KEY-----
Certificate:
    Data:
        Version: 3 (0x2)
        Serial Number: 3 (0x3)
    Signature Algorithm: sha256WithRSAEncryption
        Issuer: C=KR, CN=gilgil
        Validity
            Not Before: Mar  1 00:00:00 2014 GMT
            Not After : Feb 27 00:00:00 2024 GMT
        Subject: C=KR, CN=login.live.com
        Subject Public Key Info:
            Public Key Algorithm: rsaEncryption
                Public-Key: (1024 bit)
                Modulus:
                    00:bd:0c:e2:c7:f1:a9:db:5c:90:70:76:69:bb:76:
                    a0:41:82:67:4f:74:dd:fa:1d:da:e9:63:21:13:d3:
                    da:f0:fe:40:15:ae:9c:31:15:6b:90:87:4e:ac:c4:
                    33:59:cb:5f:73:f1:26:26:e9:fb:98:45:96:c0:f5:
                    12:4d:18:9d:32:c0:a2:0a:bf:ee:84:94:d0:65:2d:
                    27:1d:09:83:b4:db:73:71:8d:5f:35:44:a2:63:fa:
                    06:74:40:b1:4d:53:72:3f:65:67:2d:8a:e2:63:4e:
                    c5:d8:b1:ff:51:ae:74:6c:1c:90:d4:03:dc:d9:4d:
                    4e:d2:84:56:3b:18:9c:4c:bf
                Exponent: 65537 (0x10001)
        X509v3 extensions:
            X509v3 Basic Constraints: 
                CA:FALSE
            Netscape Comment: 
                OpenSSL Generated Certificate
            X509v3 Subject Key Identifier: 
                84:00:95:4C:4F:AB:67:0C:97:6B:BE:F7:D3:04:B1:04:00:E3:C0:CC
            X509v3 Authority Key Identifier: 
                DirName:/C=KR/CN=gilgil
                serial:BC:FE:EF:E9:4A:BC:63:F0

    Signature Algorithm: sha256WithRSAEncryption
         38:0f:1e:b6:9c:c9:9a:63:7f:a8:65:20:3a:d8:bc:84:30:d0:
         44:66:84:5d:1b:ed:54:61:10:a1:44:01:64:82:27:72:2f:29:
         06:18:84:58:df:cc:f1:82:c0:6e:24:42:95:13:c1:dc:2d:f8:
         2a:26:24:db:43:ac:22:79:4c:d6:eb:79:f1:05:70:26:05:ef:
         f7:9e:24:8b:60:81:5f:56:4e:38:35:e5:7a:cf:5c:d8:3b:13:
         10:1e:cf:21:96:11:95:5c:7f:a1:9e:2c:aa:ea:4e:26:04:18:
         98:fc:29:50:33:00:e8:32:c4:f5:29:ba:f7:6d:ce:62:33:84:
         c3:56
-----BEGIN CERTIFICATE-----
MIICVDCCAb2gAwIBAgIBAzANBgkqhkiG9w0BAQsFADAeMQswCQYDVQQGEwJLUjEP
MA0GA1UEAwwGZ2lsZ2lsMCIYDzIwMTQwMzAxMDAwMDAwWhgPMjAyNDAyMjcwMDAw
MDBaMCYxCzAJBgNVBAYTAktSMRcwFQYDVQQDDA5sb2dpbi5saXZlLmNvbTCBnzAN
BgkqhkiG9w0BAQEFAAOBjQAwgYkCgYEAvQzix/Gp21yQcHZpu3agQYJnT3Td+h3a
6WMhE9Pa8P5AFa6cMRVrkIdOrMQzWctfc/EmJun7mEWWwPUSTRidMsCiCr/uhJTQ
ZS0nHQmDtNtzcY1fNUSiY/oGdECxTVNyP2VnLYriY07F2LH/Ua50bByQ1APc2U1O
0oRWOxicTL8CAwEAAaOBlTCBkjAJBgNVHRMEAjAAMCwGCWCGSAGG+EIBDQQfFh1P
cGVuU1NMIEdlbmVyYXRlZCBDZXJ0aWZpY2F0ZTAdBgNVHQ4EFgQUhACVTE+rZwyX
a7730wSxBADjwMwwOAYDVR0jBDEwL6EipCAwHjELMAkGA1UEBhMCS1IxDzANBgNV
BAMMBmdpbGdpbIIJALz+7+lKvGPwMA0GCSqGSIb3DQEBCwUAA4GBADgPHracyZpj
f6hlIDrYvIQw0ERmhF0b7VRhEKFEAWSCJ3IvKQYYhFjfzPGCwG4kQpUTwdwt+Com
JNtDrCJ5TNbrefEFcCYF7/eeJItggV9WTjg15XrPXNg7ExAezyGWEZVcf6GeLKrq
TiYEGJj8KVAzAOgyxPUpuvdtzmIzhMNW
-----END CERTIFICATE-----
