-----BEGIN RSA PRIVATE KEY-----
MIICXAIBAAKBgQC3B8Mv4FsTzLtFwJO63EWFijXeVufTpyjGuMB20Q1ueRWdx9UF
NNnSV2quxkDOWYOT1E1/6GME0sOCqc/wNO/8eK0VTdQzGZs7sBq6J6bO8/PwxrQ7
ChL4eYbZsSHBFcy+pA0cv+DLwN6PwHDZy9z+fpxpxKUkXbxLzezgGwhM9wIDAQAB
AoGAZpqYZgdspz3XIfQiHNeMtZ7UMe8gCLullTlO04y/7dU9M/UpSsDk9xCAQrfq
7oKpyz5xr6mTkMmiRmZxpiPXAAviS8uGoJwkgQQO6xGFkpyF+i+CzOg68ydls85A
f3mE/bQtaJLrwSTzJs8P5SK00R7fA4sT7xcuhaWirM9dyPkCQQDbmm9qjCQkyWSX
FSVeLsvNmR7aFM/whYg5o/12jSXFpvORHCM2ULaEwyvkULYDfPSruidIG62fIL/m
FIgEZYTFAkEA1V2SKZYdI1EcZ72WEOhw87h8o3/38ftX29/bCaCvLAWbLmbVnyI5
T4EI94MbHgGRA3US+HX3TDcon5rXPdO+iwJAC7zqfah1+h1lqgmwUKNxs1Ce7Is2
PiX1DRet4ZtTzIfK9xOo8itIRjpkazTBNdiE/3TYyqroEdxfRX4Ncya1/QJACNvO
sr1RzmKSvFfpwB/2eJgDTMKGZ9yYpD9iF789JqXA8KdCXU4NdRiVZ7lgydkkzTDy
LbCwKNDtddr27tE4ywJBAIFH1UB2Peek/cwLmVy5q6HIHPYhhoJd7p+G91VN/72V
B30y4wYceTJdfAokEwjOhuBLJlUGkePTKR2NgKrUVjk=
-----END RSA PRIVATE KEY-----
Certificate:
    Data:
        Version: 3 (0x2)
        Serial Number: 1 (0x1)
    Signature Algorithm: sha256WithRSAEncryption
        Issuer: C=KR, CN=gilgil
        Validity
            Not Before: Mar  1 00:00:00 2014 GMT
            Not After : Feb 27 00:00:00 2024 GMT
        Subject: C=KR, CN=mail.naver.com
        Subject Public Key Info:
            Public Key Algorithm: rsaEncryption
                Public-Key: (1024 bit)
                Modulus:
                    00:b7:07:c3:2f:e0:5b:13:cc:bb:45:c0:93:ba:dc:
                    45:85:8a:35:de:56:e7:d3:a7:28:c6:b8:c0:76:d1:
                    0d:6e:79:15:9d:c7:d5:05:34:d9:d2:57:6a:ae:c6:
                    40:ce:59:83:93:d4:4d:7f:e8:63:04:d2:c3:82:a9:
                    cf:f0:34:ef:fc:78:ad:15:4d:d4:33:19:9b:3b:b0:
                    1a:ba:27:a6:ce:f3:f3:f0:c6:b4:3b:0a:12:f8:79:
                    86:d9:b1:21:c1:15:cc:be:a4:0d:1c:bf:e0:cb:c0:
                    de:8f:c0:70:d9:cb:dc:fe:7e:9c:69:c4:a5:24:5d:
                    bc:4b:cd:ec:e0:1b:08:4c:f7
                Exponent: 65537 (0x10001)
        X509v3 extensions:
            X509v3 Basic Constraints: 
                CA:FALSE
            Netscape Comment: 
                OpenSSL Generated Certificate
            X509v3 Subject Key Identifier: 
                42:63:16:B7:8D:9D:77:AE:E3:F5:DD:7A:8F:F4:08:EC:7D:DF:73:6C
            X509v3 Authority Key Identifier: 
                DirName:/C=KR/CN=gilgil
                serial:BC:FE:EF:E9:4A:BC:63:F0

    Signature Algorithm: sha256WithRSAEncryption
         85:73:6b:4e:84:cd:13:54:e4:f6:56:9a:b6:52:fd:5c:e8:dc:
         c8:e4:8e:2e:4d:2e:b8:71:eb:69:48:d5:7b:88:17:ce:ca:8e:
         e1:6c:12:e6:ef:c1:54:e1:b3:20:74:cc:ca:8c:df:5c:48:24:
         7d:fe:11:dd:e8:a4:86:83:89:c1:ba:ec:7d:10:00:1d:b0:37:
         f0:64:85:85:12:ca:14:f7:64:b3:e2:0a:6d:c9:8c:09:64:77:
         93:09:8b:1b:06:3d:80:55:67:0c:7e:87:7f:29:09:78:87:43:
         97:86:94:6c:8f:0f:61:43:ad:8a:aa:4d:a1:89:b1:c7:75:ce:
         3d:0f
-----BEGIN CERTIFICATE-----
MIICVDCCAb2gAwIBAgIBATANBgkqhkiG9w0BAQsFADAeMQswCQYDVQQGEwJLUjEP
MA0GA1UEAwwGZ2lsZ2lsMCIYDzIwMTQwMzAxMDAwMDAwWhgPMjAyNDAyMjcwMDAw
MDBaMCYxCzAJBgNVBAYTAktSMRcwFQYDVQQDDA5tYWlsLm5hdmVyLmNvbTCBnzAN
BgkqhkiG9w0BAQEFAAOBjQAwgYkCgYEAtwfDL+BbE8y7RcCTutxFhYo13lbn06co
xrjAdtENbnkVncfVBTTZ0ldqrsZAzlmDk9RNf+hjBNLDgqnP8DTv/HitFU3UMxmb
O7AauiemzvPz8Ma0OwoS+HmG2bEhwRXMvqQNHL/gy8Dej8Bw2cvc/n6cacSlJF28
S83s4BsITPcCAwEAAaOBlTCBkjAJBgNVHRMEAjAAMCwGCWCGSAGG+EIBDQQfFh1P
cGVuU1NMIEdlbmVyYXRlZCBDZXJ0aWZpY2F0ZTAdBgNVHQ4EFgQUQmMWt42dd67j
9d16j/QI7H3fc2wwOAYDVR0jBDEwL6EipCAwHjELMAkGA1UEBhMCS1IxDzANBgNV
BAMMBmdpbGdpbIIJALz+7+lKvGPwMA0GCSqGSIb3DQEBCwUAA4GBAIVza06EzRNU
5PZWmrZS/Vzo3Mjkji5NLrhx62lI1XuIF87KjuFsEubvwVThsyB0zMqM31xIJH3+
Ed3opIaDicG67H0QAB2wN/BkhYUSyhT3ZLPiCm3JjAlkd5MJixsGPYBVZwx+h38p
CXiHQ5eGlGyPD2FDrYqqTaGJscd1zj0P
-----END CERTIFICATE-----
