-----BEGIN RSA PRIVATE KEY-----
MIICXgIBAAKBgQDm8Br2XvxTcQGso9IYV6wQhIiSe34op0neYmGpiPos1mD8+lrZ
V+DOUqwGYZrQDGc52d2oJ8GGgHXIdmeQAp8nZT9Vosk/i0ErNt+b7R5SnN4CvThu
YuQvT67n0WDWqMljRD5SYvhoBjoWl5+rS95jsiGDFMl5b+C/iRpV2q1h2wIDAQAB
AoGAcnvrUeGqww7NnrEj0Q99bD7XmY6A71RnSUiKU8plA19Pe3n9Gav39TCEuTEf
1y2e6s33lYoH5U6/lR4lnv29uY/Zsl44SKcx3O7RYCNcb6t7Jmy+Ph+xgsKrEBAT
SmLjbJLrY8b6LdxnSLRb6vByPJZsTMWnPKXEKf4hG3ur86kCQQD3eU+EVpdX7oVP
rdTv4GDzVnKx+LOQbrwh6CjSLf/O8Obk9DBN1jZ1Q2M8FE4tKl4l79o8gjqPQoC0
KIkKnspXAkEA7uTzFyNrvpctBFavhqA/4C0I6OmNPz9OQO7a9d/O8kITmjyxZMXe
pxKZ9ORehwsZR+L+/iXFT6Ka0NqvM/V6HQJBAIueBzyUVcIoMVHoso+6uTfP99ls
hHHh54YBorYheYbY5osZMP9Y8VRq9lt44ToeAwvILAmjN0KHtHDvxZEWUPUCQQCV
ijuhAEsxwvArBxhY7XcOnSI2qfwA21/gxaPKxY6Fl1ct9VAWBMabTsmQwmNppUjt
9uonrP0WHHNMyZdirwcBAkEAgm2iwIR5TwX8JwrQO4JrDBrkOOhwrNxjibv5vlSN
ISvz8D9MvFWAsEoXCK4qI0VNihsIifd630lMS2KnDmvMng==
-----END RSA PRIVATE KEY-----
Certificate:
    Data:
        Version: 3 (0x2)
        Serial Number: 14 (0xe)
    Signature Algorithm: sha256WithRSAEncryption
        Issuer: C=KR, CN=gilgil
        Validity
            Not Before: Mar  1 00:00:00 2014 GMT
            Not After : Feb 27 00:00:00 2024 GMT
        Subject: C=KR, CN=match.adsrvr.org
        Subject Public Key Info:
            Public Key Algorithm: rsaEncryption
                Public-Key: (1024 bit)
                Modulus:
                    00:e6:f0:1a:f6:5e:fc:53:71:01:ac:a3:d2:18:57:
                    ac:10:84:88:92:7b:7e:28:a7:49:de:62:61:a9:88:
                    fa:2c:d6:60:fc:fa:5a:d9:57:e0:ce:52:ac:06:61:
                    9a:d0:0c:67:39:d9:dd:a8:27:c1:86:80:75:c8:76:
                    67:90:02:9f:27:65:3f:55:a2:c9:3f:8b:41:2b:36:
                    df:9b:ed:1e:52:9c:de:02:bd:38:6e:62:e4:2f:4f:
                    ae:e7:d1:60:d6:a8:c9:63:44:3e:52:62:f8:68:06:
                    3a:16:97:9f:ab:4b:de:63:b2:21:83:14:c9:79:6f:
                    e0:bf:89:1a:55:da:ad:61:db
                Exponent: 65537 (0x10001)
        X509v3 extensions:
            X509v3 Basic Constraints: 
                CA:FALSE
            Netscape Comment: 
                OpenSSL Generated Certificate
            X509v3 Subject Key Identifier: 
                2A:76:6B:4E:29:DF:9A:66:63:A4:30:91:AF:6F:60:27:3A:CF:A9:91
            X509v3 Authority Key Identifier: 
                DirName:/C=KR/CN=gilgil
                serial:BC:FE:EF:E9:4A:BC:63:F0

    Signature Algorithm: sha256WithRSAEncryption
         6b:5b:56:e5:09:69:19:27:d1:cf:8d:1a:ad:b2:c5:e2:ec:2b:
         52:76:33:14:83:05:93:3c:1a:ae:1f:8b:10:3e:0e:5b:3c:08:
         16:0a:e5:33:a5:2e:b3:75:a9:93:49:ff:6b:0f:0d:ab:c3:24:
         b0:45:7f:71:9b:8d:11:a3:c9:76:38:36:0f:64:9f:16:d4:4e:
         f9:42:76:9e:3a:d5:f3:10:3f:3a:c8:7b:b3:92:2c:d3:4e:3e:
         c4:fb:a7:66:5c:81:6b:ff:6a:c5:ef:49:bd:21:85:ff:dc:4b:
         61:a7:6e:96:16:88:fe:f8:91:da:79:cb:e9:3e:2e:56:94:6c:
         b7:a5
-----BEGIN CERTIFICATE-----
MIICVjCCAb+gAwIBAgIBDjANBgkqhkiG9w0BAQsFADAeMQswCQYDVQQGEwJLUjEP
MA0GA1UEAwwGZ2lsZ2lsMCIYDzIwMTQwMzAxMDAwMDAwWhgPMjAyNDAyMjcwMDAw
MDBaMCgxCzAJBgNVBAYTAktSMRkwFwYDVQQDDBBtYXRjaC5hZHNydnIub3JnMIGf
MA0GCSqGSIb3DQEBAQUAA4GNADCBiQKBgQDm8Br2XvxTcQGso9IYV6wQhIiSe34o
p0neYmGpiPos1mD8+lrZV+DOUqwGYZrQDGc52d2oJ8GGgHXIdmeQAp8nZT9Vosk/
i0ErNt+b7R5SnN4CvThuYuQvT67n0WDWqMljRD5SYvhoBjoWl5+rS95jsiGDFMl5
b+C/iRpV2q1h2wIDAQABo4GVMIGSMAkGA1UdEwQCMAAwLAYJYIZIAYb4QgENBB8W
HU9wZW5TU0wgR2VuZXJhdGVkIENlcnRpZmljYXRlMB0GA1UdDgQWBBQqdmtOKd+a
ZmOkMJGvb2AnOs+pkTA4BgNVHSMEMTAvoSKkIDAeMQswCQYDVQQGEwJLUjEPMA0G
A1UEAwwGZ2lsZ2lsggkAvP7v6Uq8Y/AwDQYJKoZIhvcNAQELBQADgYEAa1tW5Qlp
GSfRz40arbLF4uwrUnYzFIMFkzwarh+LED4OWzwIFgrlM6Uus3Wpk0n/aw8Nq8Mk
sEV/cZuNEaPJdjg2D2SfFtRO+UJ2njrV8xA/Osh7s5Is004+xPunZlyBa/9qxe9J
vSGF/9xLYadulhaI/viR2nnL6T4uVpRst6U=
-----END CERTIFICATE-----
