-----BEGIN RSA PRIVATE KEY-----
MIICXQIBAAKBgQDBu4ymCmdizyodn+DOEm+qK12DzBu09+hVAatZxSiDFbz265aI
/vlBbxNsVsrnw8Oe2v663zy5DTOPTOXU1FP3VPogGhJlgXUAeec0qVK2HP9XmS6a
WcCY0wv9XODgR/5YivIUV8RdlksC2P9p/0agP6uHnZc/QAvDb7pPMdWxJwIDAQAB
AoGBAIu/qZ6gxKFPRVcnXDfqrqg3LfcDxjzN08d2M8/G3AlrJeuMWAOswcrEwGMX
XLjAy50M5lGQ9TGb50SIuQXEwGfXrd3NigDZK/LcJv0CrL/t3jqU0mEDgic3bOsA
yDm8zh4ISBmGUi245P2qzig1WfLqx8PAC9MWGfEgF40J/G+xAkEA+FSxgql4ArUQ
fBTs1LjJ860fXjcENIj1HS1Tvy5AmrblP2ET7r3/+WboUu7cJy+mSMDTu0ZWYFn6
ltELJmyf+QJBAMe3M6rS+xdvifhSCepvs/L2mqko4v307/7da5DTI4TL4i8WakHl
k61T1hPfGQEvLNdQ3I16x1gAi9tI5s85Yh8CQQCa6aKOow9liPROo3MWRGxfIYlm
6aUq7KET4XnT0pOksCGUhwe7MDWlrKeTTMRzgYsW6Ytr0TYDBz6GpMNy5eJpAkBQ
phGOPQ66gwdDKNXqPtt7FMyV3PX1OdEkqYODg0/Hk5GuFC4qmCvPhZhgg+oUCVnh
RT0bQOZ5ChdwIPtb2T9fAkBvx0dYMOH+ji7mVLAPK9AxbHZQXonQQ8e1j8F8WeSc
YFRDa7N9t1vxQqZJt63asjLH2gz0DEp6eQVXVUXKWrg8
-----END RSA PRIVATE KEY-----
Certificate:
    Data:
        Version: 3 (0x2)
        Serial Number: 2 (0x2)
    Signature Algorithm: sha256WithRSAEncryption
        Issuer: C=KR, CN=gilgil
        Validity
            Not Before: Mar  1 00:00:00 2014 GMT
            Not After : Feb 27 00:00:00 2024 GMT
        Subject: C=KR, CN=microsoft.com
        Subject Public Key Info:
            Public Key Algorithm: rsaEncryption
                Public-Key: (1024 bit)
                Modulus:
                    00:c1:bb:8c:a6:0a:67:62:cf:2a:1d:9f:e0:ce:12:
                    6f:aa:2b:5d:83:cc:1b:b4:f7:e8:55:01:ab:59:c5:
                    28:83:15:bc:f6:eb:96:88:fe:f9:41:6f:13:6c:56:
                    ca:e7:c3:c3:9e:da:fe:ba:df:3c:b9:0d:33:8f:4c:
                    e5:d4:d4:53:f7:54:fa:20:1a:12:65:81:75:00:79:
                    e7:34:a9:52:b6:1c:ff:57:99:2e:9a:59:c0:98:d3:
                    0b:fd:5c:e0:e0:47:fe:58:8a:f2:14:57:c4:5d:96:
                    4b:02:d8:ff:69:ff:46:a0:3f:ab:87:9d:97:3f:40:
                    0b:c3:6f:ba:4f:31:d5:b1:27
                Exponent: 65537 (0x10001)
        X509v3 extensions:
            X509v3 Basic Constraints: 
                CA:FALSE
            Netscape Comment: 
                OpenSSL Generated Certificate
            X509v3 Subject Key Identifier: 
                E8:F0:47:75:A7:8C:86:53:8D:A4:28:5B:7F:5B:4F:E0:E7:87:B7:0E
            X509v3 Authority Key Identifier: 
                DirName:/C=KR/CN=gilgil
                serial:BC:FE:EF:E9:4A:BC:63:F0

    Signature Algorithm: sha256WithRSAEncryption
         33:e9:36:05:a9:cc:d6:f4:99:a5:71:55:66:77:3c:1d:6f:5d:
         64:87:70:a0:f1:ae:88:19:97:69:08:19:44:8d:d0:69:5d:29:
         4e:f6:3e:9b:7f:d0:2e:1d:fa:0b:5b:c4:58:dd:28:24:51:22:
         f9:15:43:e4:3c:ca:89:1f:ee:0f:ce:44:98:a1:06:42:01:53:
         b0:e1:4d:e7:f7:40:d4:7a:8c:b2:f4:ab:70:04:82:ed:8b:24:
         7d:04:d5:e8:3b:3a:8a:06:e5:3f:37:82:5a:9a:12:c2:15:9c:
         9c:99:d6:22:83:27:7c:62:f3:50:ca:6f:de:3d:3f:75:0a:3a:
         65:7a
-----BEGIN CERTIFICATE-----
MIICUzCCAbygAwIBAgIBAjANBgkqhkiG9w0BAQsFADAeMQswCQYDVQQGEwJLUjEP
MA0GA1UEAwwGZ2lsZ2lsMCIYDzIwMTQwMzAxMDAwMDAwWhgPMjAyNDAyMjcwMDAw
MDBaMCUxCzAJBgNVBAYTAktSMRYwFAYDVQQDDA1taWNyb3NvZnQuY29tMIGfMA0G
CSqGSIb3DQEBAQUAA4GNADCBiQKBgQDBu4ymCmdizyodn+DOEm+qK12DzBu09+hV
AatZxSiDFbz265aI/vlBbxNsVsrnw8Oe2v663zy5DTOPTOXU1FP3VPogGhJlgXUA
eec0qVK2HP9XmS6aWcCY0wv9XODgR/5YivIUV8RdlksC2P9p/0agP6uHnZc/QAvD
b7pPMdWxJwIDAQABo4GVMIGSMAkGA1UdEwQCMAAwLAYJYIZIAYb4QgENBB8WHU9w
ZW5TU0wgR2VuZXJhdGVkIENlcnRpZmljYXRlMB0GA1UdDgQWBBTo8Ed1p4yGU42k
KFt/W0/g54e3DjA4BgNVHSMEMTAvoSKkIDAeMQswCQYDVQQGEwJLUjEPMA0GA1UE
AwwGZ2lsZ2lsggkAvP7v6Uq8Y/AwDQYJKoZIhvcNAQELBQADgYEAM+k2BanM1vSZ
pXFVZnc8HW9dZIdwoPGuiBmXaQgZRI3QaV0pTvY+m3/QLh36C1vEWN0oJFEi+RVD
5DzKiR/uD85EmKEGQgFTsOFN5/dA1HqMsvSrcASC7YskfQTV6Ds6igblPzeCWpoS
whWcnJnWIoMnfGLzUMpv3j0/dQo6ZXo=
-----END CERTIFICATE-----
