-----BEGIN RSA PRIVATE KEY-----
MIICWwIBAAKBgQDhOwldVskwOG8eCfLayrzAeluPPFgohip4kNUz9AeV29/+fG82
BIFxXCXd91XhRcOD3Xo3pdlga1PD3J+MakKUoHxq732bVHoHKx83Qf4bxeLPqRFE
1u42b3HApa8Le2+R+S0uLJ+xDYIHfCTh0X54x4E/FNHq3Qvl2nDGa3528QIDAQAB
AoGAX9NJUa/52w03oXUkIRg+pDmquM84xs0GRtOAEiGSFJ0+uLxiaH4UQJGu/rgb
jsOqwnC5bfGfAZnIQr2cGBahimPkStic1WEeRt3iVFqyUaP9ZFGambYE9o9m8LUD
QFKFTKhaenhQvKHHrkYKsDYmH8X7k7Wz5T8Qs9JwakFMTgECQQD/QYHhR9hefwQk
RhXie6f5GM9xqCZfFFrbP+Y9y9er9Ky9pkRsD2JFjyCeGUy5FORT8qs2vpInui51
skm8bZchAkEA4eMfN2ZgTx/IYoL9baks9sie7qjMDUTqJWjWpq/8iE0wjvb2XCM5
45czBNrIKa3hNJbCykZ6Kj4WhNSNZXR10QJAKcOrH5Qkx9lacSDyhbsb0bsIfh04
IghvkT4USvomUKFY/jLNMS0XNDBl8thK4GGVtlKXRv7JZSymW2WPgQAhYQJAckW1
yw7tddm8Q6nEjy9gYdAIJvAZmjTcxuQMgvLQrBtwj0J8Sww/AtXAp5oOXJdsMHB8
Rlv0/V2/gp8MkOCjoQJAbQXaPtm2199U27i3BsNtGEsQCm8i/AB8+gVwDXoMscsn
pVjkJ60XdUWMeQXcjCFCIsyrMEoHDWlMclUqAiirnA==
-----END RSA PRIVATE KEY-----
Certificate:
    Data:
        Version: 3 (0x2)
        Serial Number: 12 (0xc)
    Signature Algorithm: sha256WithRSAEncryption
        Issuer: C=KR, CN=gilgil
        Validity
            Not Before: Mar  1 00:00:00 2014 GMT
            Not After : Feb 27 00:00:00 2024 GMT
        Subject: C=KR, CN=mscom.demdex.net
        Subject Public Key Info:
            Public Key Algorithm: rsaEncryption
                Public-Key: (1024 bit)
                Modulus:
                    00:e1:3b:09:5d:56:c9:30:38:6f:1e:09:f2:da:ca:
                    bc:c0:7a:5b:8f:3c:58:28:86:2a:78:90:d5:33:f4:
                    07:95:db:df:fe:7c:6f:36:04:81:71:5c:25:dd:f7:
                    55:e1:45:c3:83:dd:7a:37:a5:d9:60:6b:53:c3:dc:
                    9f:8c:6a:42:94:a0:7c:6a:ef:7d:9b:54:7a:07:2b:
                    1f:37:41:fe:1b:c5:e2:cf:a9:11:44:d6:ee:36:6f:
                    71:c0:a5:af:0b:7b:6f:91:f9:2d:2e:2c:9f:b1:0d:
                    82:07:7c:24:e1:d1:7e:78:c7:81:3f:14:d1:ea:dd:
                    0b:e5:da:70:c6:6b:7e:76:f1
                Exponent: 65537 (0x10001)
        X509v3 extensions:
            X509v3 Basic Constraints: 
                CA:FALSE
            Netscape Comment: 
                OpenSSL Generated Certificate
            X509v3 Subject Key Identifier: 
                BA:D5:31:CD:0D:BA:7C:43:D3:CB:85:05:E3:F0:A2:64:C5:AA:09:5C
            X509v3 Authority Key Identifier: 
                DirName:/C=KR/CN=gilgil
                serial:BC:FE:EF:E9:4A:BC:63:F0

    Signature Algorithm: sha256WithRSAEncryption
         1d:00:3f:b1:a1:0a:ca:bf:1e:8c:53:1c:99:1f:75:50:4d:39:
         d3:03:7d:df:d9:59:cd:b2:d5:76:1d:96:82:33:9a:a1:62:d4:
         15:9e:da:8b:9c:0d:86:7e:55:63:d6:f0:88:48:b7:74:0e:85:
         d0:67:55:c7:97:e1:3a:22:95:6a:32:4d:a3:34:35:95:7a:b9:
         69:63:59:92:61:c3:0f:8e:63:0c:3f:47:f3:00:ca:37:7f:46:
         2b:00:cb:1d:07:57:dd:d1:6e:97:02:6f:0d:d6:99:d8:91:6d:
         fa:1e:d0:b1:1d:07:1b:6f:df:05:bb:59:fb:dd:cf:1d:78:5e:
         4c:61
-----BEGIN CERTIFICATE-----
MIICVjCCAb+gAwIBAgIBDDANBgkqhkiG9w0BAQsFADAeMQswCQYDVQQGEwJLUjEP
MA0GA1UEAwwGZ2lsZ2lsMCIYDzIwMTQwMzAxMDAwMDAwWhgPMjAyNDAyMjcwMDAw
MDBaMCgxCzAJBgNVBAYTAktSMRkwFwYDVQQDDBBtc2NvbS5kZW1kZXgubmV0MIGf
MA0GCSqGSIb3DQEBAQUAA4GNADCBiQKBgQDhOwldVskwOG8eCfLayrzAeluPPFgo
hip4kNUz9AeV29/+fG82BIFxXCXd91XhRcOD3Xo3pdlga1PD3J+MakKUoHxq732b
VHoHKx83Qf4bxeLPqRFE1u42b3HApa8Le2+R+S0uLJ+xDYIHfCTh0X54x4E/FNHq
3Qvl2nDGa3528QIDAQABo4GVMIGSMAkGA1UdEwQCMAAwLAYJYIZIAYb4QgENBB8W
HU9wZW5TU0wgR2VuZXJhdGVkIENlcnRpZmljYXRlMB0GA1UdDgQWBBS61THNDbp8
Q9PLhQXj8KJkxaoJXDA4BgNVHSMEMTAvoSKkIDAeMQswCQYDVQQGEwJLUjEPMA0G
A1UEAwwGZ2lsZ2lsggkAvP7v6Uq8Y/AwDQYJKoZIhvcNAQELBQADgYEAHQA/saEK
yr8ejFMcmR91UE050wN939lZzbLVdh2WgjOaoWLUFZ7ai5wNhn5VY9bwiEi3dA6F
0GdVx5fhOiKVajJNozQ1lXq5aWNZkmHDD45jDD9H8wDKN39GKwDLHQdX3dFulwJv
DdaZ2JFt+h7QsR0HG2/fBbtZ+93PHXheTGE=
-----END CERTIFICATE-----
