-----BEGIN RSA PRIVATE KEY-----
MIICXAIBAAKBgQDDF76bcL/loKx7uGLtR+BJcVAvZ4UeFguCPem1yx0lS+q3Jg9n
aE358CwUZIjpZx5MiSRdPQjZ7prAP2cdQdpeV0XMtaTOdJc8ETaviS0yGXqcM2ps
/Xkhgc616nLNzWmRrLC/b3bEgVaZhFpzBkuRCrw85yUfnPSODoR8qlw7mQIDAQAB
AoGBAME2Hd6BvnrjMo9g4BCQ846ouzoHcu2F9aXqPTB+1QGf+vehqPXHdhpHAtC7
dGB7cKVp2OrCTKbQyNAGus9d7a1wMpqP9Sll2njxJatpio+6iBzYK1hUF1qB2CEN
xOMnrlJwwi+t8eCq1TBGcPNbTbt7Kb0oiQ78r/NzvQpq/sPVAkEA5lwZWzCcBm6x
k5UCe2bUAe4R0AfDY3gRW19XOkTEQp2XJ7zHRji3CtLzMieQkKcm4CXsVK3ThxrZ
UeDvPTkZBwJBANjOviV+8I3ElVCxS/9VzV26rr63l3DN1ESjLX0C+XmgLW9fJeba
3FvE3vk1T6SB1ylZCjfHjWELG1zoGDcx/l8CQEkP2PL1PedEYIoAbuMYwBFEot2q
OKxpvoeOe6n9eYnvVavC0ilRf6ytL3ku10kp2sio/oX1A+wL9fVkNDzkyS0CQHKB
dpGtInVtjwLoMOAxO961+xbFNhmgy+xYVm0BBivDeluo4Aa2Ls3VA4KRMngLD01K
NohRP40yZYhDGI8GO3cCQFsjxD80/WooLodTTCDY0r2JtXjc/ecn/qYpE+o50yGW
IOEt2i4j1pUwr41jpn/TUI13gc9lqTOei/JiwbZX67c=
-----END RSA PRIVATE KEY-----
Certificate:
    Data:
        Version: 3 (0x2)
        Serial Number: 3 (0x3)
    Signature Algorithm: sha256WithRSAEncryption
        Issuer: C=KR, CN=gilgil
        Validity
            Not Before: Mar  1 00:00:00 2014 GMT
            Not After : Feb 27 00:00:00 2024 GMT
        Subject: C=KR, CN=namu.wiki
        Subject Public Key Info:
            Public Key Algorithm: rsaEncryption
                Public-Key: (1024 bit)
                Modulus:
                    00:c3:17:be:9b:70:bf:e5:a0:ac:7b:b8:62:ed:47:
                    e0:49:71:50:2f:67:85:1e:16:0b:82:3d:e9:b5:cb:
                    1d:25:4b:ea:b7:26:0f:67:68:4d:f9:f0:2c:14:64:
                    88:e9:67:1e:4c:89:24:5d:3d:08:d9:ee:9a:c0:3f:
                    67:1d:41:da:5e:57:45:cc:b5:a4:ce:74:97:3c:11:
                    36:af:89:2d:32:19:7a:9c:33:6a:6c:fd:79:21:81:
                    ce:b5:ea:72:cd:cd:69:91:ac:b0:bf:6f:76:c4:81:
                    56:99:84:5a:73:06:4b:91:0a:bc:3c:e7:25:1f:9c:
                    f4:8e:0e:84:7c:aa:5c:3b:99
                Exponent: 65537 (0x10001)
        X509v3 extensions:
            X509v3 Basic Constraints: 
                CA:FALSE
            Netscape Comment: 
                OpenSSL Generated Certificate
            X509v3 Subject Key Identifier: 
                57:03:64:BC:09:94:A1:95:F2:E0:53:BC:8A:0D:D5:57:B8:68:7C:7A
            X509v3 Authority Key Identifier: 
                DirName:/C=KR/CN=gilgil
                serial:BC:FE:EF:E9:4A:BC:63:F0

    Signature Algorithm: sha256WithRSAEncryption
         78:89:80:00:10:aa:92:07:51:8b:16:3e:4f:a0:78:ad:c6:ac:
         46:d0:50:d3:65:f7:c5:08:97:38:19:b5:29:88:7c:1b:a9:98:
         59:57:51:5c:3f:b3:65:7c:c4:74:83:a1:ab:01:d9:e7:68:ce:
         e6:e0:d4:cc:ae:79:53:8b:1c:3d:cb:aa:8b:88:ae:43:a8:b6:
         cf:eb:c7:96:b7:98:92:97:9a:23:79:bd:36:38:fd:a3:cd:ea:
         c4:03:0b:20:54:65:d7:9f:01:6a:6d:8d:fb:9b:83:a3:eb:f9:
         2a:65:45:d8:6a:98:75:57:68:71:cd:8d:9e:62:3e:f4:af:5e:
         a0:66
-----BEGIN CERTIFICATE-----
MIICTzCCAbigAwIBAgIBAzANBgkqhkiG9w0BAQsFADAeMQswCQYDVQQGEwJLUjEP
MA0GA1UEAwwGZ2lsZ2lsMCIYDzIwMTQwMzAxMDAwMDAwWhgPMjAyNDAyMjcwMDAw
MDBaMCExCzAJBgNVBAYTAktSMRIwEAYDVQQDDAluYW11Lndpa2kwgZ8wDQYJKoZI
hvcNAQEBBQADgY0AMIGJAoGBAMMXvptwv+WgrHu4Yu1H4ElxUC9nhR4WC4I96bXL
HSVL6rcmD2doTfnwLBRkiOlnHkyJJF09CNnumsA/Zx1B2l5XRcy1pM50lzwRNq+J
LTIZepwzamz9eSGBzrXqcs3NaZGssL9vdsSBVpmEWnMGS5EKvDznJR+c9I4OhHyq
XDuZAgMBAAGjgZUwgZIwCQYDVR0TBAIwADAsBglghkgBhvhCAQ0EHxYdT3BlblNT
TCBHZW5lcmF0ZWQgQ2VydGlmaWNhdGUwHQYDVR0OBBYEFFcDZLwJlKGV8uBTvIoN
1Ve4aHx6MDgGA1UdIwQxMC+hIqQgMB4xCzAJBgNVBAYTAktSMQ8wDQYDVQQDDAZn
aWxnaWyCCQC8/u/pSrxj8DANBgkqhkiG9w0BAQsFAAOBgQB4iYAAEKqSB1GLFj5P
oHitxqxG0FDTZffFCJc4GbUpiHwbqZhZV1FcP7NlfMR0g6GrAdnnaM7m4NTMrnlT
ixw9y6qLiK5DqLbP68eWt5iSl5ojeb02OP2jzerEAwsgVGXXnwFqbY37m4Oj6/kq
ZUXYaph1V2hxzY2eYj70r16gZg==
-----END CERTIFICATE-----
