-----BEGIN RSA PRIVATE KEY-----
MIICXQIBAAKBgQDEAQZRvT1Yjs6hiom6vO+OAlwvm7AMFN0W64Ed5C77mn4BWrqa
+b2LqQRv1HAKuvabt/Pn0BblQeWcLycTfP74NQNKa1kQk7E8tkueXrSmv/bzYp23
aGSomTDxbheoN/I4vSJSFwgymsLcZsg4JnPWBPOgmBnt33Sfc12dtKgOcQIDAQAB
AoGAK5rewQiMwUrkBWRAx96InNtBjwXf4JAzr4mtK+071pXEOqDoqtmspYlwh0CH
vJtjibke9g+BSHekkV6cHuXMAyAr0/vOV1f7OG9F7/1ue9YlSpqtIGeTL8vRHMcn
M/LgWXZr2gvOtt3jpKVfX+TAzjrCnKL0gnnzdFWE9HEO4pECQQDylJQeiMtzTCNC
3yC25nXyOcSS8OZCuKngXzCzWUfGjP5UOtfILpDBo2njnSYYUuQN5PmEbIjsIVwp
KEr9kcnzAkEAztjU7ZtUQZH4m7Is1AJICjCiEIFJ3Z6pZ/cJRpQKuNE9qX7kb7S2
fHDxi+B17K93WHS2Sjp3utLoHC7TxLlbCwJBANKYqv7XQ8mVEAe+LmibK0pfXIk1
GrJSHyjrexw5Jlb5kNMPQsZHpuR1Ojig9bGoRNTLNNQCZdyaGaihknkRWIECQAM2
hwgx03s5Qz1X5S5d4rSV0M6k03rnzgXZZoF8JzZ7uZN6bx31FqiUMIxVrj9A8n+j
QHmist1qDUTyzUNPBcUCQQDTs37efMvuzIYAHMkMVqKEuYOefrwL4ziDXm3uEUmk
GVa3EoCPRq8qboVngkY020d1ShQl3TSQc4GkJeksJxlG
-----END RSA PRIVATE KEY-----
Certificate:
    Data:
        Version: 3 (0x2)
        Serial Number: 6 (0x6)
    Signature Algorithm: sha256WithRSAEncryption
        Issuer: C=KR, CN=gilgil
        Validity
            Not Before: Mar  1 00:00:00 2014 GMT
            Not After : Feb 27 00:00:00 2024 GMT
        Subject: C=KR, CN=nv.veta.naver.com
        Subject Public Key Info:
            Public Key Algorithm: rsaEncryption
                Public-Key: (1024 bit)
                Modulus:
                    00:c4:01:06:51:bd:3d:58:8e:ce:a1:8a:89:ba:bc:
                    ef:8e:02:5c:2f:9b:b0:0c:14:dd:16:eb:81:1d:e4:
                    2e:fb:9a:7e:01:5a:ba:9a:f9:bd:8b:a9:04:6f:d4:
                    70:0a:ba:f6:9b:b7:f3:e7:d0:16:e5:41:e5:9c:2f:
                    27:13:7c:fe:f8:35:03:4a:6b:59:10:93:b1:3c:b6:
                    4b:9e:5e:b4:a6:bf:f6:f3:62:9d:b7:68:64:a8:99:
                    30:f1:6e:17:a8:37:f2:38:bd:22:52:17:08:32:9a:
                    c2:dc:66:c8:38:26:73:d6:04:f3:a0:98:19:ed:df:
                    74:9f:73:5d:9d:b4:a8:0e:71
                Exponent: 65537 (0x10001)
        X509v3 extensions:
            X509v3 Basic Constraints: 
                CA:FALSE
            Netscape Comment: 
                OpenSSL Generated Certificate
            X509v3 Subject Key Identifier: 
                83:DF:D5:1F:04:C0:FD:36:A2:75:A0:4F:CF:FF:AB:60:3F:93:99:BF
            X509v3 Authority Key Identifier: 
                DirName:/C=KR/CN=gilgil
                serial:BC:FE:EF:E9:4A:BC:63:F0

    Signature Algorithm: sha256WithRSAEncryption
         36:bd:8d:23:ce:32:61:94:52:f5:f6:6a:4f:5d:39:5e:a4:ff:
         e6:81:e5:ff:fd:f2:5a:78:d2:0e:f8:8a:a7:28:51:3a:29:9f:
         39:72:98:3a:74:df:a2:80:27:8f:c6:dc:b9:92:dc:b2:c4:8d:
         5c:d8:6c:00:c7:bb:bf:44:d7:36:6c:b0:8a:0a:06:bf:f5:f4:
         9b:3d:84:95:8e:9f:ab:39:66:e6:af:ee:86:11:33:51:ca:63:
         59:27:47:e8:73:bd:81:40:b9:36:38:1d:c0:3b:a1:ed:a5:2e:
         4c:c5:2f:ff:14:8f:0e:78:d4:94:4e:80:b1:52:71:ae:de:24:
         92:e0
-----BEGIN CERTIFICATE-----
MIICVzCCAcCgAwIBAgIBBjANBgkqhkiG9w0BAQsFADAeMQswCQYDVQQGEwJLUjEP
MA0GA1UEAwwGZ2lsZ2lsMCIYDzIwMTQwMzAxMDAwMDAwWhgPMjAyNDAyMjcwMDAw
MDBaMCkxCzAJBgNVBAYTAktSMRowGAYDVQQDDBFudi52ZXRhLm5hdmVyLmNvbTCB
nzANBgkqhkiG9w0BAQEFAAOBjQAwgYkCgYEAxAEGUb09WI7OoYqJurzvjgJcL5uw
DBTdFuuBHeQu+5p+AVq6mvm9i6kEb9RwCrr2m7fz59AW5UHlnC8nE3z++DUDSmtZ
EJOxPLZLnl60pr/282Kdt2hkqJkw8W4XqDfyOL0iUhcIMprC3GbIOCZz1gTzoJgZ
7d90n3NdnbSoDnECAwEAAaOBlTCBkjAJBgNVHRMEAjAAMCwGCWCGSAGG+EIBDQQf
Fh1PcGVuU1NMIEdlbmVyYXRlZCBDZXJ0aWZpY2F0ZTAdBgNVHQ4EFgQUg9/VHwTA
/TaidaBPz/+rYD+Tmb8wOAYDVR0jBDEwL6EipCAwHjELMAkGA1UEBhMCS1IxDzAN
BgNVBAMMBmdpbGdpbIIJALz+7+lKvGPwMA0GCSqGSIb3DQEBCwUAA4GBADa9jSPO
MmGUUvX2ak9dOV6k/+aB5f/98lp40g74iqcoUTopnzlymDp036KAJ4/G3LmS3LLE
jVzYbADHu79E1zZssIoKBr/19Js9hJWOn6s5Zuav7oYRM1HKY1knR+hzvYFAuTY4
HcA7oe2lLkzFL/8Ujw541JROgLFSca7eJJLg
-----END CERTIFICATE-----
