-----BEGIN RSA PRIVATE KEY-----
MIICXAIBAAKBgQD2eo8PS6jI7XQEaw4JDyjp7k/lE0z/Yxir33gQr97dI0tzut9J
tOEyrMQyqM+wR5aNHMe7W9yDREz5Lpm4LgqndGm3/DmK6WT41vjhvEB8aEzUB6L4
5VW3ELCnJ3FE3FxkwEAe4Vv+OueoBvGTO+ijRv/GT5DYmHXeZpRQokSBcQIDAQAB
AoGACkhGm46+ddNiGaUVqs8VF903PAk4FxddOh5Sde/ATl1gkm1jT0HaezC15p8g
OuxhnXVr56cHZfp9c4+8HfDdxNWjDvYEV7Kd21DWoEzBcn0out+muMKIQcgYFeOb
xyANPeMlEAZZegvHYWO5nsMTUsqqad4H2N5bS6qPCPoruiECQQD7pQIo47alor7v
TImhAeMJxVbbcZbb8sAvqLp1ogCzz+H5ikOvyvW9bd0vt0gLewyeJizg8H2KzO8z
Ba/s10a1AkEA+r6pXWtkX7Qv6hz5l53Nv5vmAkgxCpouF1ojaA5O2Ux4QLjuKb9w
ftchoZLT1QgZkDRgRdP1WI2XMo4cAfRpTQJAIQOW8vJdBgIB9rcd30e2F5QSPxv5
5MVGPXpva/tjCDQfu3NOSgPglYeSWy46f3cXQrBTdvdWIR2dzB3U5MeheQJBAIZE
FALPH7dTkBinnUr/mA3TGA3+xCvuNWIRxUXR64zWMspNfFJkjYOOBRc0vTOkm7Op
KCgcAJODdgP/LqYpTz0CQDhX8c2kuD9IxI59vyxsl7pgbVaEq9ZO9wqiosgCK+8B
EgeRPZMDt5B2zD0+68YGWVyxp8MNTN01de1nJx2opdo=
-----END RSA PRIVATE KEY-----
Certificate:
    Data:
        Version: 3 (0x2)
        Serial Number: 9 (0x9)
    Signature Algorithm: sha256WithRSAEncryption
        Issuer: C=KR, CN=gilgil
        Validity
            Not Before: Mar  1 00:00:00 2014 GMT
            Not After : Feb 27 00:00:00 2024 GMT
        Subject: C=KR, CN=otf.msn.com
        Subject Public Key Info:
            Public Key Algorithm: rsaEncryption
                Public-Key: (1024 bit)
                Modulus:
                    00:f6:7a:8f:0f:4b:a8:c8:ed:74:04:6b:0e:09:0f:
                    28:e9:ee:4f:e5:13:4c:ff:63:18:ab:df:78:10:af:
                    de:dd:23:4b:73:ba:df:49:b4:e1:32:ac:c4:32:a8:
                    cf:b0:47:96:8d:1c:c7:bb:5b:dc:83:44:4c:f9:2e:
                    99:b8:2e:0a:a7:74:69:b7:fc:39:8a:e9:64:f8:d6:
                    f8:e1:bc:40:7c:68:4c:d4:07:a2:f8:e5:55:b7:10:
                    b0:a7:27:71:44:dc:5c:64:c0:40:1e:e1:5b:fe:3a:
                    e7:a8:06:f1:93:3b:e8:a3:46:ff:c6:4f:90:d8:98:
                    75:de:66:94:50:a2:44:81:71
                Exponent: 65537 (0x10001)
        X509v3 extensions:
            X509v3 Basic Constraints: 
                CA:FALSE
            Netscape Comment: 
                OpenSSL Generated Certificate
            X509v3 Subject Key Identifier: 
                20:98:CF:4F:92:AB:42:0D:1D:4C:3D:CB:DC:E1:76:37:DD:68:10:F8
            X509v3 Authority Key Identifier: 
                DirName:/C=KR/CN=gilgil
                serial:BC:FE:EF:E9:4A:BC:63:F0

    Signature Algorithm: sha256WithRSAEncryption
         b5:29:b7:e2:b9:fa:db:9d:6d:15:43:33:2c:fd:23:5b:1a:fd:
         50:d9:b4:b5:60:64:0c:db:5e:a1:87:21:e3:79:4c:66:4d:37:
         02:fe:55:e1:94:3d:68:8c:0c:f6:bf:6b:13:e0:0f:b2:dc:48:
         ae:04:ae:f7:08:ae:1e:10:ff:b9:b9:15:b3:a9:84:ad:1e:a5:
         ff:4b:51:2f:42:44:14:0a:77:17:00:85:20:5a:47:63:5a:af:
         d1:01:5a:a9:d4:e0:34:43:21:03:27:b4:86:bd:ca:86:06:26:
         1f:a7:28:09:36:81:7b:77:07:5d:5d:3d:ec:67:21:e8:4b:88:
         0a:67
-----BEGIN CERTIFICATE-----
MIICUTCCAbqgAwIBAgIBCTANBgkqhkiG9w0BAQsFADAeMQswCQYDVQQGEwJLUjEP
MA0GA1UEAwwGZ2lsZ2lsMCIYDzIwMTQwMzAxMDAwMDAwWhgPMjAyNDAyMjcwMDAw
MDBaMCMxCzAJBgNVBAYTAktSMRQwEgYDVQQDDAtvdGYubXNuLmNvbTCBnzANBgkq
hkiG9w0BAQEFAAOBjQAwgYkCgYEA9nqPD0uoyO10BGsOCQ8o6e5P5RNM/2MYq994
EK/e3SNLc7rfSbThMqzEMqjPsEeWjRzHu1vcg0RM+S6ZuC4Kp3Rpt/w5iulk+Nb4
4bxAfGhM1Aei+OVVtxCwpydxRNxcZMBAHuFb/jrnqAbxkzvoo0b/xk+Q2Jh13maU
UKJEgXECAwEAAaOBlTCBkjAJBgNVHRMEAjAAMCwGCWCGSAGG+EIBDQQfFh1PcGVu
U1NMIEdlbmVyYXRlZCBDZXJ0aWZpY2F0ZTAdBgNVHQ4EFgQUIJjPT5KrQg0dTD3L
3OF2N91oEPgwOAYDVR0jBDEwL6EipCAwHjELMAkGA1UEBhMCS1IxDzANBgNVBAMM
BmdpbGdpbIIJALz+7+lKvGPwMA0GCSqGSIb3DQEBCwUAA4GBALUpt+K5+tudbRVD
Myz9I1sa/VDZtLVgZAzbXqGHIeN5TGZNNwL+VeGUPWiMDPa/axPgD7LcSK4ErvcI
rh4Q/7m5FbOphK0epf9LUS9CRBQKdxcAhSBaR2Nar9EBWqnU4DRDIQMntIa9yoYG
Jh+nKAk2gXt3B11dPexnIehLiApn
-----END CERTIFICATE-----
