-----BEGIN RSA PRIVATE KEY-----
MIICXAIBAAKBgQDFo1MdFBQS+VMBp0t4VeumNAG1/ckC2BpvhFS6NJmluVhASlKD
CHiUaSXBpJRp4Eqbx9mYokERKt68bAzLSNt30XakdbjQ8hUh1HHJlN5eWWx7L8CI
ImpDgLBg+Re/mWpBKvcCSTcP6zG1yx9q1ogtsFBVw4avy0djjwO/TnQokQIDAQAB
AoGASfvCwC7k+NlWZlcO3GQli5kKTutK1QK6mqZJ5U6NeckxLRflXWHNaZkW5i9K
03t/0mL0pLuQafHHYXd9Lpf+d2oy55tTbXri8B3f91YAllTS6wleLC/6gDzkoZ4M
10kt5An+NZ3xJLjbIDHIYi+KZc85O3n0Y9DsGAdtTJleCEUCQQDv9sgtPLUfaIzs
z8nj+BMvpnyrktZBXRXQKnC6FoWGC6cwwonMieG7iwfHWTOCdhemOcz4hbTcm+/w
2FP8XBfTAkEA0thx0C4haaxvf2BpwH17U5VjyMaHha0UvEuPZySmYSj5X+ldOA8V
mflgQTAu4HzCODhrcAXrFr2j5RJNVY1DiwJAJ21U1pny6IY1IXPCqEJKZLnmIgqu
SW8R9nICs5Cfv7aKceiE26aMAFSHoql1XSoqGJXGp87QOK8mbVwd8IjxIQJABbrW
FPc79zg1a3u+Q/nlARd9N7aVdj+G4bsX8ZCgaOGJLV8VJnHaf220fPEHRRh+2rJF
0SyH//01WANQULPfEwJBAIXfoO4bda7iarhZd2mmmXlTb8wn2GCKAuXhBhafeJPq
pLPdEbXO4Isv49NEabWVOe8/qd8uifebzpd68PTnmGY=
-----END RSA PRIVATE KEY-----
Certificate:
    Data:
        Version: 3 (0x2)
        Serial Number: 13 (0xd)
    Signature Algorithm: sha256WithRSAEncryption
        Issuer: C=KR, CN=gilgil
        Validity
            Not Before: Mar  1 00:00:00 2014 GMT
            Not After : Feb 27 00:00:00 2024 GMT
        Subject: C=KR, CN=pixel.tapad.com
        Subject Public Key Info:
            Public Key Algorithm: rsaEncryption
                Public-Key: (1024 bit)
                Modulus:
                    00:c5:a3:53:1d:14:14:12:f9:53:01:a7:4b:78:55:
                    eb:a6:34:01:b5:fd:c9:02:d8:1a:6f:84:54:ba:34:
                    99:a5:b9:58:40:4a:52:83:08:78:94:69:25:c1:a4:
                    94:69:e0:4a:9b:c7:d9:98:a2:41:11:2a:de:bc:6c:
                    0c:cb:48:db:77:d1:76:a4:75:b8:d0:f2:15:21:d4:
                    71:c9:94:de:5e:59:6c:7b:2f:c0:88:22:6a:43:80:
                    b0:60:f9:17:bf:99:6a:41:2a:f7:02:49:37:0f:eb:
                    31:b5:cb:1f:6a:d6:88:2d:b0:50:55:c3:86:af:cb:
                    47:63:8f:03:bf:4e:74:28:91
                Exponent: 65537 (0x10001)
        X509v3 extensions:
            X509v3 Basic Constraints: 
                CA:FALSE
            Netscape Comment: 
                OpenSSL Generated Certificate
            X509v3 Subject Key Identifier: 
                F9:BC:06:65:5E:A1:99:CA:29:AD:88:2D:67:A4:56:0A:15:00:FD:8C
            X509v3 Authority Key Identifier: 
                DirName:/C=KR/CN=gilgil
                serial:BC:FE:EF:E9:4A:BC:63:F0

    Signature Algorithm: sha256WithRSAEncryption
         83:e4:17:7d:8e:c5:04:05:3e:63:18:07:de:cc:19:00:a3:78:
         46:d1:96:94:3c:fe:9f:ed:0b:01:bd:ae:f9:45:2f:c5:e0:fe:
         50:64:4c:e8:52:4c:6d:d0:67:25:44:e4:52:7e:a6:d5:64:5d:
         3f:6a:d4:c4:61:38:0d:13:5a:7c:99:a2:09:f8:f7:77:db:5d:
         38:4b:c4:26:b3:b9:3f:c6:0d:9a:5b:76:06:bc:57:ba:54:d3:
         af:e1:8c:22:fb:3d:9f:6b:d7:5d:7b:b7:0b:f1:4a:6b:57:37:
         79:e5:55:ef:7f:9d:81:d3:38:76:f7:5d:68:24:84:e9:d7:f8:
         72:c3
-----BEGIN CERTIFICATE-----
MIICVTCCAb6gAwIBAgIBDTANBgkqhkiG9w0BAQsFADAeMQswCQYDVQQGEwJLUjEP
MA0GA1UEAwwGZ2lsZ2lsMCIYDzIwMTQwMzAxMDAwMDAwWhgPMjAyNDAyMjcwMDAw
MDBaMCcxCzAJBgNVBAYTAktSMRgwFgYDVQQDDA9waXhlbC50YXBhZC5jb20wgZ8w
DQYJKoZIhvcNAQEBBQADgY0AMIGJAoGBAMWjUx0UFBL5UwGnS3hV66Y0AbX9yQLY
Gm+EVLo0maW5WEBKUoMIeJRpJcGklGngSpvH2ZiiQREq3rxsDMtI23fRdqR1uNDy
FSHUccmU3l5ZbHsvwIgiakOAsGD5F7+ZakEq9wJJNw/rMbXLH2rWiC2wUFXDhq/L
R2OPA79OdCiRAgMBAAGjgZUwgZIwCQYDVR0TBAIwADAsBglghkgBhvhCAQ0EHxYd
T3BlblNTTCBHZW5lcmF0ZWQgQ2VydGlmaWNhdGUwHQYDVR0OBBYEFPm8BmVeoZnK
Ka2ILWekVgoVAP2MMDgGA1UdIwQxMC+hIqQgMB4xCzAJBgNVBAYTAktSMQ8wDQYD
VQQDDAZnaWxnaWyCCQC8/u/pSrxj8DANBgkqhkiG9w0BAQsFAAOBgQCD5Bd9jsUE
BT5jGAfezBkAo3hG0ZaUPP6f7QsBva75RS/F4P5QZEzoUkxt0GclRORSfqbVZF0/
atTEYTgNE1p8maIJ+Pd32104S8Qms7k/xg2aW3YGvFe6VNOv4Ywi+z2fa9dde7cL
8UprVzd55VXvf52B0zh2911oJITp1/hyww==
-----END CERTIFICATE-----
