-----BEGIN RSA PRIVATE KEY-----
MIICXAIBAAKBgQDAHPcp6ZUcuFm2JfQcGhHXsOxEtHKGN3xH8Hv+V2+b//OItqOB
OcGZJWBlqlTtRoz8g971lV2P4PAOM0UsICx+Cxm8NtiQVDT8MgIpWay8EGDyoxhU
F/qPbD78OwQpOFGXVbwcWf0ESgHeMJ2/lZp2E2wcKzKDWBjwTdeEamjfZQIDAQAB
AoGAPjNipzRUrhbWHQ6OyeZ67m3/IYOXLPOcDqLDUqc2oLivPg18ROPRVedvHZuX
obddAIkl0DfLMkFvF/nrpIzKOnk7W3UZjQUUIzj3CRvKik8lQ+DeNaVmptF/6P44
BTGr4vWjnunv70TItEgrk2nx2fcJoSjNfQomuKNa28kbqqECQQDrW5e/PObN47a6
L0nODx7O9RAc9sqgfKrZOX2cCZXndBwumdNS1Ukb+C1uMDTspO0F5HP5coMuaSVW
a9sX+vdJAkEA0PZqb81X0LG2baA/wEUklrAAaydC8QP2+6+HKUadMEDfyjeMcEOr
ocMr9x2w0HGMkKQ2MK41CNZm/FlYdw1bPQJAZjszz/KxQo9+CKOPyHzS4gyawioE
2+8q+w443HVhctcBgtB4dYuFpSuI+EriQkRlXGDea2TtTFSJzl8tHN57WQJBAKND
9LN36CXZxCRxMX5DR6woxZrzKR1wsJfDdEJutsAN4Ax6TFMmvEH+YSqJ2y1xmpck
hmaQpkVKZ1rBYBpcqC0CQHe3F0BgQ2GcpnEdQm2chD01suYXnesdLtZBmp/3EVoi
ZFVYQMYgT0UGKbIZmFloVREsSz8EK/vqqR0q2cs5WQI=
-----END RSA PRIVATE KEY-----
Certificate:
    Data:
        Version: 3 (0x2)
        Serial Number: 3 (0x3)
    Signature Algorithm: sha256WithRSAEncryption
        Issuer: C=KR, CN=gilgil
        Validity
            Not Before: Mar  1 00:00:00 2014 GMT
            Not After : Feb 27 00:00:00 2024 GMT
        Subject: C=KR, CN=s.pstatic.net
        Subject Public Key Info:
            Public Key Algorithm: rsaEncryption
                Public-Key: (1024 bit)
                Modulus:
                    00:c0:1c:f7:29:e9:95:1c:b8:59:b6:25:f4:1c:1a:
                    11:d7:b0:ec:44:b4:72:86:37:7c:47:f0:7b:fe:57:
                    6f:9b:ff:f3:88:b6:a3:81:39:c1:99:25:60:65:aa:
                    54:ed:46:8c:fc:83:de:f5:95:5d:8f:e0:f0:0e:33:
                    45:2c:20:2c:7e:0b:19:bc:36:d8:90:54:34:fc:32:
                    02:29:59:ac:bc:10:60:f2:a3:18:54:17:fa:8f:6c:
                    3e:fc:3b:04:29:38:51:97:55:bc:1c:59:fd:04:4a:
                    01:de:30:9d:bf:95:9a:76:13:6c:1c:2b:32:83:58:
                    18:f0:4d:d7:84:6a:68:df:65
                Exponent: 65537 (0x10001)
        X509v3 extensions:
            X509v3 Basic Constraints: 
                CA:FALSE
            Netscape Comment: 
                OpenSSL Generated Certificate
            X509v3 Subject Key Identifier: 
                E3:7F:79:41:36:6F:54:18:0A:B8:CA:3B:A8:DA:11:34:98:F7:82:22
            X509v3 Authority Key Identifier: 
                DirName:/C=KR/CN=gilgil
                serial:BC:FE:EF:E9:4A:BC:63:F0

    Signature Algorithm: sha256WithRSAEncryption
         2e:b9:66:15:c2:72:e8:2f:a3:64:94:16:85:98:a8:d6:43:af:
         42:e5:1c:f7:99:f3:c4:86:91:1e:eb:d5:87:66:55:2c:23:62:
         02:8f:58:93:98:5f:4f:69:35:aa:e7:5e:ee:68:b6:11:ee:64:
         6b:f1:b3:80:60:bf:2d:8a:ff:22:a2:75:a3:e0:14:85:d1:99:
         df:76:fa:d6:77:10:62:75:ff:be:fe:2f:d4:cc:b3:5b:b5:83:
         a5:f0:43:df:a9:40:c1:cd:39:69:ed:62:f1:55:be:ef:fe:fd:
         54:5a:07:33:59:a5:ec:f5:77:37:47:b1:9b:f3:0d:a2:de:ee:
         8d:9e
-----BEGIN CERTIFICATE-----
MIICUzCCAbygAwIBAgIBAzANBgkqhkiG9w0BAQsFADAeMQswCQYDVQQGEwJLUjEP
MA0GA1UEAwwGZ2lsZ2lsMCIYDzIwMTQwMzAxMDAwMDAwWhgPMjAyNDAyMjcwMDAw
MDBaMCUxCzAJBgNVBAYTAktSMRYwFAYDVQQDDA1zLnBzdGF0aWMubmV0MIGfMA0G
CSqGSIb3DQEBAQUAA4GNADCBiQKBgQDAHPcp6ZUcuFm2JfQcGhHXsOxEtHKGN3xH
8Hv+V2+b//OItqOBOcGZJWBlqlTtRoz8g971lV2P4PAOM0UsICx+Cxm8NtiQVDT8
MgIpWay8EGDyoxhUF/qPbD78OwQpOFGXVbwcWf0ESgHeMJ2/lZp2E2wcKzKDWBjw
TdeEamjfZQIDAQABo4GVMIGSMAkGA1UdEwQCMAAwLAYJYIZIAYb4QgENBB8WHU9w
ZW5TU0wgR2VuZXJhdGVkIENlcnRpZmljYXRlMB0GA1UdDgQWBBTjf3lBNm9UGAq4
yjuo2hE0mPeCIjA4BgNVHSMEMTAvoSKkIDAeMQswCQYDVQQGEwJLUjEPMA0GA1UE
AwwGZ2lsZ2lsggkAvP7v6Uq8Y/AwDQYJKoZIhvcNAQELBQADgYEALrlmFcJy6C+j
ZJQWhZio1kOvQuUc95nzxIaRHuvVh2ZVLCNiAo9Yk5hfT2k1qude7mi2Ee5ka/Gz
gGC/LYr/IqJ1o+AUhdGZ33b61ncQYnX/vv4v1MyzW7WDpfBD36lAwc05ae1i8VW+
7/79VFoHM1ml7PV3N0exm/MNot7ujZ4=
-----END CERTIFICATE-----
