-----BEGIN RSA PRIVATE KEY-----
MIICXAIBAAKBgQCiwzoLq3KwCFjPsGkhVqsMM5SbYABC/oB1GLS6VxBrZcra6EUM
vLX3VWSjpjdP4hWfEKXw5iqPVyo3i03IiqBxcz7JEPngZnZOPMmlVbQu9OgF5HyS
hIdB80o9gwVZFCAE0D1+ifW8K+rSxVZb5cJVU+IdLM2fz+eX3wk5PBwQSwIDAQAB
AoGAPVr8yaNiw2sSF5C3wMKMDjhvf7bLwnVv9TRQBKKHZQTlWGoQhYGp0sfU/T/O
QAXJAsJi25HYX1qLZo7TzpI7co78Xp9s7SaeZLD5QSUFpBRtbyNyfRdUILsIsQNq
bYCn+YgwxsuJJBQ9GGIv8T40qA8mnehxX3mrKXz6xxFPVkkCQQDRnT419IrZc6zp
Rzao4sf8ojeHvUkBRhq1cSsOLoczO7jn908UIYtjvr0NP0QTH1iDjyu1oxrwB+6p
ASAbuS3tAkEAxsfQeLABV2E+sbv2Yw0ZJf7+rCWWnCR1pBFBgAFOVsH5hoizc6H6
nUfr/L9MpeyrwxWZEx2L27Y4enjBnb6wFwJACU6wGnk3SRyHyvvsg2c+dgtF5/MR
sMrKGNBjlwed3TqDpVkn2775j35CqrnqbebwaTcMO854Pbw8bqisIk8AqQJAGZcd
snvOIGangJAXHxdPloGmXZkVM5LKBk4mZYlFgYvFSNmOaKOAtQDOU6J5Bp9aWWoN
Y9WY7LcfvDyRiHJFDwJBALcvKTBwGZPbtBo7IEw7NH0xsD5JDJ7QrEG9BT9HVJAK
EyJW0kuK3XtpWpQGGlN+OBwEfnGcA6hP/LMcUngQNpk=
-----END RSA PRIVATE KEY-----
Certificate:
    Data:
        Version: 3 (0x2)
        Serial Number: 6 (0x6)
    Signature Algorithm: sha256WithRSAEncryption
        Issuer: C=KR, CN=gilgil
        Validity
            Not Before: Mar  1 00:00:00 2014 GMT
            Not After : Feb 27 00:00:00 2024 GMT
        Subject: C=KR, CN=s2.googleusercontent.com
        Subject Public Key Info:
            Public Key Algorithm: rsaEncryption
                Public-Key: (1024 bit)
                Modulus:
                    00:a2:c3:3a:0b:ab:72:b0:08:58:cf:b0:69:21:56:
                    ab:0c:33:94:9b:60:00:42:fe:80:75:18:b4:ba:57:
                    10:6b:65:ca:da:e8:45:0c:bc:b5:f7:55:64:a3:a6:
                    37:4f:e2:15:9f:10:a5:f0:e6:2a:8f:57:2a:37:8b:
                    4d:c8:8a:a0:71:73:3e:c9:10:f9:e0:66:76:4e:3c:
                    c9:a5:55:b4:2e:f4:e8:05:e4:7c:92:84:87:41:f3:
                    4a:3d:83:05:59:14:20:04:d0:3d:7e:89:f5:bc:2b:
                    ea:d2:c5:56:5b:e5:c2:55:53:e2:1d:2c:cd:9f:cf:
                    e7:97:df:09:39:3c:1c:10:4b
                Exponent: 65537 (0x10001)
        X509v3 extensions:
            X509v3 Basic Constraints: 
                CA:FALSE
            Netscape Comment: 
                OpenSSL Generated Certificate
            X509v3 Subject Key Identifier: 
                C6:E8:6B:B9:00:AA:3E:CF:A2:34:E2:AB:AD:C0:D8:1C:A2:00:0E:2A
            X509v3 Authority Key Identifier: 
                DirName:/C=KR/CN=gilgil
                serial:BC:FE:EF:E9:4A:BC:63:F0

    Signature Algorithm: sha256WithRSAEncryption
         04:55:bd:35:b3:7e:fb:a3:bb:9b:be:ca:52:23:db:07:e1:d3:
         e6:39:69:01:5a:82:d0:25:1c:49:ac:59:0c:e8:66:f6:2c:12:
         ce:fd:a1:f3:44:d2:34:93:8b:47:b1:3d:25:b7:2d:ad:9c:bd:
         5a:1a:1f:d6:10:c0:e1:15:cd:3d:65:02:7c:bd:3e:8a:94:b6:
         92:ef:64:c0:92:24:0f:84:6b:18:14:08:a1:d7:04:92:74:db:
         81:f3:79:b4:1b:c9:c4:87:a1:9d:0e:29:29:0b:ff:bf:c3:62:
         4a:f5:13:c8:8e:0c:01:dd:2a:fe:ab:00:47:47:de:a8:de:eb:
         b1:40
-----BEGIN CERTIFICATE-----
MIICXjCCAcegAwIBAgIBBjANBgkqhkiG9w0BAQsFADAeMQswCQYDVQQGEwJLUjEP
MA0GA1UEAwwGZ2lsZ2lsMCIYDzIwMTQwMzAxMDAwMDAwWhgPMjAyNDAyMjcwMDAw
MDBaMDAxCzAJBgNVBAYTAktSMSEwHwYDVQQDDBhzMi5nb29nbGV1c2VyY29udGVu
dC5jb20wgZ8wDQYJKoZIhvcNAQEBBQADgY0AMIGJAoGBAKLDOgurcrAIWM+waSFW
qwwzlJtgAEL+gHUYtLpXEGtlytroRQy8tfdVZKOmN0/iFZ8QpfDmKo9XKjeLTciK
oHFzPskQ+eBmdk48yaVVtC706AXkfJKEh0HzSj2DBVkUIATQPX6J9bwr6tLFVlvl
wlVT4h0szZ/P55ffCTk8HBBLAgMBAAGjgZUwgZIwCQYDVR0TBAIwADAsBglghkgB
hvhCAQ0EHxYdT3BlblNTTCBHZW5lcmF0ZWQgQ2VydGlmaWNhdGUwHQYDVR0OBBYE
FMboa7kAqj7PojTiq63A2ByiAA4qMDgGA1UdIwQxMC+hIqQgMB4xCzAJBgNVBAYT
AktSMQ8wDQYDVQQDDAZnaWxnaWyCCQC8/u/pSrxj8DANBgkqhkiG9w0BAQsFAAOB
gQAEVb01s377o7ubvspSI9sH4dPmOWkBWoLQJRxJrFkM6Gb2LBLO/aHzRNI0k4tH
sT0lty2tnL1aGh/WEMDhFc09ZQJ8vT6KlLaS72TAkiQPhGsYFAih1wSSdNuB83m0
G8nEh6GdDikpC/+/w2JK9RPIjgwB3Sr+qwBHR96o3uuxQA==
-----END CERTIFICATE-----
