-----BEGIN RSA PRIVATE KEY-----
MIICXQIBAAKBgQDT2T0ED6v3kmpPLO7NAZN2vFLu3AsJFQeiSMnC+7UOf1EtiPy1
OR4XW7N5AbaGnEeljBnuwdCU5VwyTIkFRumNbGJze4XdHhdwOMnNq8e2b9LJFyre
gv79P8yoZ4zXx6hnaRo/TFHjhrVj1VOFog7O6TKmT9Xpx6WpiwZzmer0swIDAQAB
AoGAd2pHGJj06LLhtguv+GNhClcRsI7csZvnF7VL9dsIrklaKv7C5Cx0J9qLCjTK
/InvYQPeQlWCC8xV8gxuWEkmsIjSY4UcEiU/uy4MDGxAxfFJjCFuLkqKIhmHeed0
iJVycUJN8EWHBUfQwJVNpLOUQGT2Pae0GMztC9aPBPXTk/ECQQDpITe5tvBU9LiX
aSCUN+v6867ZTdsir3MdYADj92y1BL69Wi+cNsTENHFRgIdEwIKGDkjenj+JOrlV
O2gSm4d9AkEA6KGRomfF+86Zw7ob0GJw5Uat1tfRWiBbcaYM/L2uFXy8f66w9iSp
7oV9kUtLakkhAyV0pL+/osotCuDELHUD7wJBAOgonEXlWBBCZFDj7/2qcuXGJilg
zwkLj6eBI2Hh0++wegI2/ZKjN+/sCa0QQaTF0TWOpCKNlNgkEsw+DLX7DEECQBd8
4LBuG95NwNazPsWuesmbdkff6IJaDAGQi3UlTaNbwch+gd2IXCP6FHCMEqQ7l/qy
WHGd7qJoGV4kzYnTkr8CQQCGtnmhFyJpc3o6tJQlUKwlXSgGI9o5Mfed4POXx9PR
5MMa8tf+DWcOgJTvUQPICAmZBu7A5/0Gpb1QaFAyDFil
-----END RSA PRIVATE KEY-----
Certificate:
    Data:
        Version: 3 (0x2)
        Serial Number: 8 (0x8)
    Signature Algorithm: sha256WithRSAEncryption
        Issuer: C=KR, CN=gilgil
        Validity
            Not Before: Mar  1 00:00:00 2014 GMT
            Not After : Feb 27 00:00:00 2024 GMT
        Subject: C=KR, CN=ssl.pstatic.net
        Subject Public Key Info:
            Public Key Algorithm: rsaEncryption
                Public-Key: (1024 bit)
                Modulus:
                    00:d3:d9:3d:04:0f:ab:f7:92:6a:4f:2c:ee:cd:01:
                    93:76:bc:52:ee:dc:0b:09:15:07:a2:48:c9:c2:fb:
                    b5:0e:7f:51:2d:88:fc:b5:39:1e:17:5b:b3:79:01:
                    b6:86:9c:47:a5:8c:19:ee:c1:d0:94:e5:5c:32:4c:
                    89:05:46:e9:8d:6c:62:73:7b:85:dd:1e:17:70:38:
                    c9:cd:ab:c7:b6:6f:d2:c9:17:2a:de:82:fe:fd:3f:
                    cc:a8:67:8c:d7:c7:a8:67:69:1a:3f:4c:51:e3:86:
                    b5:63:d5:53:85:a2:0e:ce:e9:32:a6:4f:d5:e9:c7:
                    a5:a9:8b:06:73:99:ea:f4:b3
                Exponent: 65537 (0x10001)
        X509v3 extensions:
            X509v3 Basic Constraints: 
                CA:FALSE
            Netscape Comment: 
                OpenSSL Generated Certificate
            X509v3 Subject Key Identifier: 
                08:19:EE:68:4A:AE:58:72:D3:B6:A8:A3:5E:62:F0:FF:83:54:09:2C
            X509v3 Authority Key Identifier: 
                DirName:/C=KR/CN=gilgil
                serial:BC:FE:EF:E9:4A:BC:63:F0

    Signature Algorithm: sha256WithRSAEncryption
         8b:8c:fa:fe:cb:4d:fe:04:1e:a1:7f:07:42:1c:5c:8e:a6:20:
         34:e9:a6:76:b1:d8:1d:e4:e2:42:e1:d6:0c:a9:f4:6e:6e:e4:
         ac:75:62:31:27:e3:94:13:94:60:dd:1e:b6:ae:7f:3b:66:06:
         67:c0:13:52:87:35:d5:9b:9e:d2:1f:bb:f3:e5:d2:e9:6b:22:
         1a:96:28:c6:5f:51:32:a0:1f:b1:ea:40:f7:54:5c:f8:38:6c:
         86:cd:49:86:56:22:4a:17:db:40:5d:86:f7:9a:a9:83:39:c6:
         2a:d4:3a:5c:fc:6b:2d:d4:36:ce:04:b9:62:24:aa:36:1d:3d:
         f2:e8
-----BEGIN CERTIFICATE-----
MIICVTCCAb6gAwIBAgIBCDANBgkqhkiG9w0BAQsFADAeMQswCQYDVQQGEwJLUjEP
MA0GA1UEAwwGZ2lsZ2lsMCIYDzIwMTQwMzAxMDAwMDAwWhgPMjAyNDAyMjcwMDAw
MDBaMCcxCzAJBgNVBAYTAktSMRgwFgYDVQQDDA9zc2wucHN0YXRpYy5uZXQwgZ8w
DQYJKoZIhvcNAQEBBQADgY0AMIGJAoGBANPZPQQPq/eSak8s7s0Bk3a8Uu7cCwkV
B6JIycL7tQ5/US2I/LU5Hhdbs3kBtoacR6WMGe7B0JTlXDJMiQVG6Y1sYnN7hd0e
F3A4yc2rx7Zv0skXKt6C/v0/zKhnjNfHqGdpGj9MUeOGtWPVU4WiDs7pMqZP1enH
pamLBnOZ6vSzAgMBAAGjgZUwgZIwCQYDVR0TBAIwADAsBglghkgBhvhCAQ0EHxYd
T3BlblNTTCBHZW5lcmF0ZWQgQ2VydGlmaWNhdGUwHQYDVR0OBBYEFAgZ7mhKrlhy
07aoo15i8P+DVAksMDgGA1UdIwQxMC+hIqQgMB4xCzAJBgNVBAYTAktSMQ8wDQYD
VQQDDAZnaWxnaWyCCQC8/u/pSrxj8DANBgkqhkiG9w0BAQsFAAOBgQCLjPr+y03+
BB6hfwdCHFyOpiA06aZ2sdgd5OJC4dYMqfRubuSsdWIxJ+OUE5Rg3R62rn87ZgZn
wBNShzXVm57SH7vz5dLpayIalijGX1EyoB+x6kD3VFz4OGyGzUmGViJKF9tAXYb3
mqmDOcYq1Dpc/Gst1DbOBLliJKo2HT3y6A==
-----END CERTIFICATE-----
