-----BEGIN RSA PRIVATE KEY-----
MIICXQIBAAKBgQDbR42Ja6N+JqKX+Q4TaUBEgkbxuYacukYNbVbuJLeJuudw3TK0
OSLUQEkQqbkxkpLfgiLZMtudoLmCHhX4Msj6o/s98IPbBJTxuykzSwPmYA0IHMvt
dzuQS2V/zUSCGyU8F8TTMtwbuhw6rVT/GVFhUVSzILeV81cWVl2mCOceKQIDAQAB
AoGBAMkQgiKYtVBOItbRAuwfnVN0VZL+eAUr9GIJeSViO30qCV//I6gHn/0ZeSWz
SuG+sbgKPuQD80ZFAvThm2l7P7aIMgWMoWni+SrQw0M4jGAiLd3D4dYPEon6SQ3t
Z/9kMgZOh8ChpwqKwWWmpKLUB59GwZs8IrrxuYBQy+qfFEgFAkEA+NGCm6NLij/M
kjEP+UfTgoZz19+85xQd9gtP7MG86+UURlGavu0BLYHy1K/9KpYIr9amNH4O6RyA
U80rrbSjFwJBAOGbyISXDhxhhGyDI8AWzTcW2uBoejCu+vaBj9drj/IbwEvXaYoz
5yTXLkgNcfyGJBcAol3r9KZCoyfCC9iQEL8CQQCRseRfjBvEhR0dkVsAJb3FFUOp
6VnsmUv98ZvIT513J7laf5g0KgVhh1EQl0iP8jB9/htua04B0+2UpHPqD/bbAkAi
eCe5wk6AnZGa9qpWpeUyvoYwdSX+HC3xzbfJZQC4L+9AZygT2nw9T7cdgRhiSahn
70vfZ7aYVGQTJf2jV9eHAkAk8kzCOCA2z0sVN5AKlifHQULA79690+LovNUuiHIp
9zYKkNBOKVkXLzwLjTVDeM1MO2QiNnAmh7teiwle46Gn
-----END RSA PRIVATE KEY-----
Certificate:
    Data:
        Version: 3 (0x2)
        Serial Number: 5 (0x5)
    Signature Algorithm: sha256WithRSAEncryption
        Issuer: C=KR, CN=gilgil
        Validity
            Not Before: Mar  1 00:00:00 2014 GMT
            Not After : Feb 27 00:00:00 2024 GMT
        Subject: C=KR, CN=ssl.gstatic.com
        Subject Public Key Info:
            Public Key Algorithm: rsaEncryption
                Public-Key: (1024 bit)
                Modulus:
                    00:db:47:8d:89:6b:a3:7e:26:a2:97:f9:0e:13:69:
                    40:44:82:46:f1:b9:86:9c:ba:46:0d:6d:56:ee:24:
                    b7:89:ba:e7:70:dd:32:b4:39:22:d4:40:49:10:a9:
                    b9:31:92:92:df:82:22:d9:32:db:9d:a0:b9:82:1e:
                    15:f8:32:c8:fa:a3:fb:3d:f0:83:db:04:94:f1:bb:
                    29:33:4b:03:e6:60:0d:08:1c:cb:ed:77:3b:90:4b:
                    65:7f:cd:44:82:1b:25:3c:17:c4:d3:32:dc:1b:ba:
                    1c:3a:ad:54:ff:19:51:61:51:54:b3:20:b7:95:f3:
                    57:16:56:5d:a6:08:e7:1e:29
                Exponent: 65537 (0x10001)
        X509v3 extensions:
            X509v3 Basic Constraints: 
                CA:FALSE
            Netscape Comment: 
                OpenSSL Generated Certificate
            X509v3 Subject Key Identifier: 
                45:8D:9E:0F:9F:D7:03:53:E1:5E:56:4E:50:73:8C:DB:EE:93:D6:09
            X509v3 Authority Key Identifier: 
                DirName:/C=KR/CN=gilgil
                serial:BC:FE:EF:E9:4A:BC:63:F0

    Signature Algorithm: sha256WithRSAEncryption
         c5:ed:61:63:e4:72:1b:ee:f6:50:1e:14:c8:4c:5f:db:90:4e:
         bc:37:d3:9d:8c:b5:8b:fd:35:82:57:5b:38:0e:da:bb:07:d2:
         ef:23:7d:65:85:28:f4:8a:5b:f1:21:78:f7:46:1c:9a:6e:1f:
         46:62:16:bc:8d:08:06:7d:02:a2:cb:7d:4e:fe:8e:b5:92:a3:
         fd:f0:3e:5b:73:1c:e7:68:a3:38:e9:bb:f1:a6:59:47:79:d2:
         06:af:87:93:a5:3a:8d:fd:89:c1:6e:fa:c8:ac:9d:f1:98:b1:
         e5:6c:36:c2:bf:f7:52:7c:63:55:89:a0:b9:5f:00:77:3f:cd:
         8b:95
-----BEGIN CERTIFICATE-----
MIICVTCCAb6gAwIBAgIBBTANBgkqhkiG9w0BAQsFADAeMQswCQYDVQQGEwJLUjEP
MA0GA1UEAwwGZ2lsZ2lsMCIYDzIwMTQwMzAxMDAwMDAwWhgPMjAyNDAyMjcwMDAw
MDBaMCcxCzAJBgNVBAYTAktSMRgwFgYDVQQDDA9zc2wuZ3N0YXRpYy5jb20wgZ8w
DQYJKoZIhvcNAQEBBQADgY0AMIGJAoGBANtHjYlro34mopf5DhNpQESCRvG5hpy6
Rg1tVu4kt4m653DdMrQ5ItRASRCpuTGSkt+CItky252guYIeFfgyyPqj+z3wg9sE
lPG7KTNLA+ZgDQgcy+13O5BLZX/NRIIbJTwXxNMy3Bu6HDqtVP8ZUWFRVLMgt5Xz
VxZWXaYI5x4pAgMBAAGjgZUwgZIwCQYDVR0TBAIwADAsBglghkgBhvhCAQ0EHxYd
T3BlblNTTCBHZW5lcmF0ZWQgQ2VydGlmaWNhdGUwHQYDVR0OBBYEFEWNng+f1wNT
4V5WTlBzjNvuk9YJMDgGA1UdIwQxMC+hIqQgMB4xCzAJBgNVBAYTAktSMQ8wDQYD
VQQDDAZnaWxnaWyCCQC8/u/pSrxj8DANBgkqhkiG9w0BAQsFAAOBgQDF7WFj5HIb
7vZQHhTITF/bkE68N9OdjLWL/TWCV1s4Dtq7B9LvI31lhSj0ilvxIXj3Rhyabh9G
Yha8jQgGfQKiy31O/o61kqP98D5bcxznaKM46bvxpllHedIGr4eTpTqN/YnBbvrI
rJ3xmLHlbDbCv/dSfGNViaC5XwB3P82LlQ==
-----END CERTIFICATE-----
