-----BEGIN RSA PRIVATE KEY-----
MIICXQIBAAKBgQDaFftWKWm99WUufR3kOKZgMi5w1zY3N0ElbQH4QcHahKv1Iv23
zH0BeH2AYwtCkeYC/vZavsfylMRYL1ZYBxfxaNUprpcDqNvHJ0EQYBSfDbeS+PuZ
zdfJAzSQD8ic5vGBseNgHvCF81IUATggYZTiyzssOKq9EwZLyOwnajyHnwIDAQAB
AoGAE+ZFlMsalva5UNCh1Z1FsSljC3DXxZoJG70inOCDK8lHV4rl08uY7HVuHjTr
Zhuh/Uv+drFJ1Vy1vcYz/rxG9tkKXDDfBEtQLN3YgZSlxh0u/XUckK/PqBXcenAu
s73NA6bcQE3CpRNJsujG61xCCsj4+L5vvuRexgVs2+EwBaECQQD36ULuzQnZBBhc
J4maso3YF/+JL4Hg3XEf/dch37FU7HnGa0T3D7Ld/u1u44H13Qn65HWOXg73dZ+W
Ns+db8P9AkEA4TOY3nlxv+W3cKCoSL/1V6b/T9xItlalDPi4utUPVmWL8wH87o8F
26uWHMiKa9RQNWEV5gpatcddw0fdypP2ywJAIfsIIKFcIzHrgN4uf1TQGnmXnh8z
5zWTJvZtQYhezywmuOrFJjQxqTojI1rt2lx03L3p2xzLYmHuAPH8XTEPpQJBAJ0V
sqIssC2c/PHw/rGQRICZmimIjKezlHmR3Lll+MbZGl+tmVKGLR3neFQnhnZkqHYz
fGT0AAYgRMT8kjbGMzUCQQDyb52kslLBghm40V6HVRoU8sGIcIJC8kWpAPTw5uw1
72D1xJhFIfJl2HS8NYUmmJRxpHIjh0fi/RZv/mYZhSt1
-----END RSA PRIVATE KEY-----
Certificate:
    Data:
        Version: 3 (0x2)
        Serial Number: 2 (0x2)
    Signature Algorithm: sha256WithRSAEncryption
        Issuer: C=KR, CN=gilgil
        Validity
            Not Before: Mar  1 00:00:00 2014 GMT
            Not After : Feb 27 00:00:00 2024 GMT
        Subject: C=KR, CN=static-spartan-eas-s-msn-com.akamaized.net
        Subject Public Key Info:
            Public Key Algorithm: rsaEncryption
                Public-Key: (1024 bit)
                Modulus:
                    00:da:15:fb:56:29:69:bd:f5:65:2e:7d:1d:e4:38:
                    a6:60:32:2e:70:d7:36:37:37:41:25:6d:01:f8:41:
                    c1:da:84:ab:f5:22:fd:b7:cc:7d:01:78:7d:80:63:
                    0b:42:91:e6:02:fe:f6:5a:be:c7:f2:94:c4:58:2f:
                    56:58:07:17:f1:68:d5:29:ae:97:03:a8:db:c7:27:
                    41:10:60:14:9f:0d:b7:92:f8:fb:99:cd:d7:c9:03:
                    34:90:0f:c8:9c:e6:f1:81:b1:e3:60:1e:f0:85:f3:
                    52:14:01:38:20:61:94:e2:cb:3b:2c:38:aa:bd:13:
                    06:4b:c8:ec:27:6a:3c:87:9f
                Exponent: 65537 (0x10001)
        X509v3 extensions:
            X509v3 Basic Constraints: 
                CA:FALSE
            Netscape Comment: 
                OpenSSL Generated Certificate
            X509v3 Subject Key Identifier: 
                93:B9:B7:7D:65:1B:D8:77:0F:7C:6B:B6:3D:CC:6C:BC:AE:37:6F:DB
            X509v3 Authority Key Identifier: 
                DirName:/C=KR/CN=gilgil
                serial:BC:FE:EF:E9:4A:BC:63:F0

    Signature Algorithm: sha256WithRSAEncryption
         58:b6:67:1c:74:b9:8d:b5:b7:d6:a1:f4:61:9e:43:60:bc:fe:
         f9:45:dc:71:d5:9c:40:4e:c3:41:07:85:24:1a:a1:b1:58:f8:
         ab:38:87:67:8c:fb:ec:a5:30:d9:27:63:13:49:b8:00:90:d2:
         e2:2c:ae:2a:c3:cc:94:af:53:5f:94:af:94:63:44:c2:1e:12:
         fe:71:1c:20:51:5b:ed:34:9b:9d:73:15:6b:7a:54:b8:49:9f:
         47:1e:b4:c5:7a:62:ee:58:b7:e9:e4:ff:6a:c6:a2:77:86:23:
         bd:a6:7d:9a:24:4e:aa:a7:cd:eb:1d:e7:df:b1:09:84:ab:bd:
         70:b4
-----BEGIN CERTIFICATE-----
MIICcDCCAdmgAwIBAgIBAjANBgkqhkiG9w0BAQsFADAeMQswCQYDVQQGEwJLUjEP
MA0GA1UEAwwGZ2lsZ2lsMCIYDzIwMTQwMzAxMDAwMDAwWhgPMjAyNDAyMjcwMDAw
MDBaMEIxCzAJBgNVBAYTAktSMTMwMQYDVQQDDCpzdGF0aWMtc3BhcnRhbi1lYXMt
cy1tc24tY29tLmFrYW1haXplZC5uZXQwgZ8wDQYJKoZIhvcNAQEBBQADgY0AMIGJ
AoGBANoV+1Ypab31ZS59HeQ4pmAyLnDXNjc3QSVtAfhBwdqEq/Ui/bfMfQF4fYBj
C0KR5gL+9lq+x/KUxFgvVlgHF/Fo1SmulwOo28cnQRBgFJ8Nt5L4+5nN18kDNJAP
yJzm8YGx42Ae8IXzUhQBOCBhlOLLOyw4qr0TBkvI7CdqPIefAgMBAAGjgZUwgZIw
CQYDVR0TBAIwADAsBglghkgBhvhCAQ0EHxYdT3BlblNTTCBHZW5lcmF0ZWQgQ2Vy
dGlmaWNhdGUwHQYDVR0OBBYEFJO5t31lG9h3D3xrtj3MbLyuN2/bMDgGA1UdIwQx
MC+hIqQgMB4xCzAJBgNVBAYTAktSMQ8wDQYDVQQDDAZnaWxnaWyCCQC8/u/pSrxj
8DANBgkqhkiG9w0BAQsFAAOBgQBYtmccdLmNtbfWofRhnkNgvP75Rdxx1ZxATsNB
B4UkGqGxWPirOIdnjPvspTDZJ2MTSbgAkNLiLK4qw8yUr1NflK+UY0TCHhL+cRwg
UVvtNJudcxVrelS4SZ9HHrTFemLuWLfp5P9qxqJ3hiO9pn2aJE6qp83rHeffsQmE
q71wtA==
-----END CERTIFICATE-----
