-----BEGIN RSA PRIVATE KEY-----
MIICWwIBAAKBgQCctJrbVX3U4qdAN8VK44+gbFSbMjtWs1LyUO1+UJVaHJe4SWek
OhpcL4VO1yplqd7QvkKXsaOQKMfzGkovg2hwZG78fIwbHWvAtlbI7EBzb9UYHDaf
v1VjPBvQn59lXK4mNlguXH39NGXCSABx4I5Ai/KMO/pgaafe+cr/5cW13QIDAQAB
AoGACtiVP0kThICLgu5ZQW2uqzPUR0mawc13mD3xsiRxseL4vVCXU86RtH+1gldy
H8c6HMiOY2FwKLIp5LGVIOS/faw7vXFlPY2+ef9bkYg9K+JtFAFvOvKMQmyqlpp1
FbvtMq3/BlvML6/kUYzT1YTRUf11ppjkyfd7IeAp4pJvECECQQDKNJQhJIxUhunD
Ic+fl9VGhjVE6/6r18SM/g2K+JXJAtq4TcGRfGyDtNJgTNpYnwPpPwCZCJOXvLCH
qsAcrXl3AkEAxmU0mKgucm4cJtCw2D67+6cEVfrrBYn7MGnhf3LgrT01MEljmo1V
UEu4Tlbm9UNIcYIaZHJQ3kXbLxeEK23gSwJAMBkDp0KPUsfosO7I+VhfdfAUmbld
Ebk4WqVPyV/KGU9hgXeVdKrZERcg96EwSuZAQuomlUBSA0Tx5MN8ARZOjwJAP7Ik
hdKRPvntHeUosfTKQ8xmjvhFVnzrYarM1C9cxSH+nqchTHCN8H6vCK/L7PiSHKdJ
s/Aj2IkTCvaA37SiKwJALF0A0UaaEY4klIdbf7pSyeTlM7thvyRlYqz9OYhOzOIH
P68lcCsSwIhRIdZIiG131cDHMkJnxneGmBPFgHvGsw==
-----END RSA PRIVATE KEY-----
Certificate:
    Data:
        Version: 3 (0x2)
        Serial Number: 2 (0x2)
    Signature Algorithm: sha256WithRSAEncryption
        Issuer: C=KR, CN=gilgil
        Validity
            Not Before: Mar  1 00:00:00 2014 GMT
            Not After : Feb 27 00:00:00 2024 GMT
        Subject: C=KR, CN=statics-marketingsites-eas-ms-com.akamaized.net
        Subject Public Key Info:
            Public Key Algorithm: rsaEncryption
                Public-Key: (1024 bit)
                Modulus:
                    00:9c:b4:9a:db:55:7d:d4:e2:a7:40:37:c5:4a:e3:
                    8f:a0:6c:54:9b:32:3b:56:b3:52:f2:50:ed:7e:50:
                    95:5a:1c:97:b8:49:67:a4:3a:1a:5c:2f:85:4e:d7:
                    2a:65:a9:de:d0:be:42:97:b1:a3:90:28:c7:f3:1a:
                    4a:2f:83:68:70:64:6e:fc:7c:8c:1b:1d:6b:c0:b6:
                    56:c8:ec:40:73:6f:d5:18:1c:36:9f:bf:55:63:3c:
                    1b:d0:9f:9f:65:5c:ae:26:36:58:2e:5c:7d:fd:34:
                    65:c2:48:00:71:e0:8e:40:8b:f2:8c:3b:fa:60:69:
                    a7:de:f9:ca:ff:e5:c5:b5:dd
                Exponent: 65537 (0x10001)
        X509v3 extensions:
            X509v3 Basic Constraints: 
                CA:FALSE
            Netscape Comment: 
                OpenSSL Generated Certificate
            X509v3 Subject Key Identifier: 
                56:8E:E6:61:20:43:49:42:3F:A4:38:A5:14:B2:DA:E1:4A:27:2A:92
            X509v3 Authority Key Identifier: 
                DirName:/C=KR/CN=gilgil
                serial:BC:FE:EF:E9:4A:BC:63:F0

    Signature Algorithm: sha256WithRSAEncryption
         5e:09:95:61:2f:63:73:cc:d5:03:90:4e:2c:ea:37:a8:69:e9:
         e5:ea:9c:86:3e:88:37:56:bb:ee:2d:00:b3:1a:a1:2f:28:fe:
         fb:4f:47:b0:ac:3e:36:e2:9f:8d:a6:eb:80:b3:74:d3:e1:af:
         d9:da:63:3a:ad:f5:64:07:29:8f:d4:31:20:e4:36:3f:1d:1f:
         2f:ae:0e:0f:53:fd:06:19:6a:7f:2e:3d:b0:cf:d8:a5:51:3b:
         e3:1d:59:95:70:8a:78:b2:7b:9a:77:8d:38:dd:df:79:c7:04:
         ad:f6:05:bf:48:11:97:23:71:95:18:7d:94:ca:34:dc:42:d5:
         9f:d4
-----BEGIN CERTIFICATE-----
MIICdTCCAd6gAwIBAgIBAjANBgkqhkiG9w0BAQsFADAeMQswCQYDVQQGEwJLUjEP
MA0GA1UEAwwGZ2lsZ2lsMCIYDzIwMTQwMzAxMDAwMDAwWhgPMjAyNDAyMjcwMDAw
MDBaMEcxCzAJBgNVBAYTAktSMTgwNgYDVQQDDC9zdGF0aWNzLW1hcmtldGluZ3Np
dGVzLWVhcy1tcy1jb20uYWthbWFpemVkLm5ldDCBnzANBgkqhkiG9w0BAQEFAAOB
jQAwgYkCgYEAnLSa21V91OKnQDfFSuOPoGxUmzI7VrNS8lDtflCVWhyXuElnpDoa
XC+FTtcqZane0L5Cl7GjkCjH8xpKL4NocGRu/HyMGx1rwLZWyOxAc2/VGBw2n79V
Yzwb0J+fZVyuJjZYLlx9/TRlwkgAceCOQIvyjDv6YGmn3vnK/+XFtd0CAwEAAaOB
lTCBkjAJBgNVHRMEAjAAMCwGCWCGSAGG+EIBDQQfFh1PcGVuU1NMIEdlbmVyYXRl
ZCBDZXJ0aWZpY2F0ZTAdBgNVHQ4EFgQUVo7mYSBDSUI/pDilFLLa4UonKpIwOAYD
VR0jBDEwL6EipCAwHjELMAkGA1UEBhMCS1IxDzANBgNVBAMMBmdpbGdpbIIJALz+
7+lKvGPwMA0GCSqGSIb3DQEBCwUAA4GBAF4JlWEvY3PM1QOQTizqN6hp6eXqnIY+
iDdWu+4tALMaoS8o/vtPR7CsPjbin42m64CzdNPhr9naYzqt9WQHKY/UMSDkNj8d
Hy+uDg9T/QYZan8uPbDP2KVRO+MdWZVwiniye5p3jTjd33nHBK32Bb9IEZcjcZUY
fZTKNNxC1Z/U
-----END CERTIFICATE-----
