-----BEGIN RSA PRIVATE KEY-----
MIICXAIBAAKBgQDZfsj20vXWDbQWQVc6TyT6Zxleneokd0hPG6R3aUIbqtY07Aog
/erzi4hQVtFgWHWnSrUgC7LBMcrn1onqITYo+maGILD/MBvyUO8aLbiYns0uoN4u
w4pjxmMtx1Qn+JlumCH0G6GymqspNkKH0B3gxojLOMVwhC30Q8RcmGav0QIDAQAB
AoGAHSXXqvSEy8YUX3MsTH002HYeuUZyjaaKw0dSGEq7+FdB09/aT6eX6EHH5/Rq
pP3V7rCda4kF0Mxqg/2FiCIhTsdAIeKfh8Sxm6imZT8ciLEBA58Ev0P/uoCJ/3Xt
weQT98EDr9W5WKGZwRElMgcC9NloTTRvZ2xgTOD8p3PiJAECQQD5ZZdFwXXbMqzK
pMFlbSjt2a6AL7XgGrVqBzfB18yJmWuGjrgw3PDQ06wnGcq1Hc9Lqn1hOCFmAeht
jk/npTIRAkEA30D3K1c7GBHr8pmSa7rBWJXchfyMoOSxS/45PK8qgA4nPal6Tyzr
NUvamHbKNzcaLzKjZZGRlHWiscL2qyvhwQJBANBpjEu3yvSd2XYSzqci3NQ/WCs5
M6UOzNHJLFgqLXxDoG6278etqvToHvIiBJrsSWIzHEnVLVvgdkqvZajwDPECQCsj
6p89Y/XqwKVId7rJg8MScmKRwrr0di4xGe5YCuZj1cFcln3mOC08UylTCxBQXYbx
ShG+Z1tAwAeJnRDGkgECQCGD37cq3TknBnU2i7TP2fo4lMgxswMp0vGiDebPfKd/
4cfYo3m1CFCvuP+N50jZebTJ4HZtYiRpb7t3fIR5r4I=
-----END RSA PRIVATE KEY-----
Certificate:
    Data:
        Version: 3 (0x2)
        Serial Number: 2 (0x2)
    Signature Algorithm: sha256WithRSAEncryption
        Issuer: C=KR, CN=gilgil
        Validity
            Not Before: Mar  1 00:00:00 2014 GMT
            Not After : Feb 27 00:00:00 2024 GMT
        Subject: C=KR, CN=web.vortex.data.microsoft.com
        Subject Public Key Info:
            Public Key Algorithm: rsaEncryption
                Public-Key: (1024 bit)
                Modulus:
                    00:d9:7e:c8:f6:d2:f5:d6:0d:b4:16:41:57:3a:4f:
                    24:fa:67:19:5e:9d:ea:24:77:48:4f:1b:a4:77:69:
                    42:1b:aa:d6:34:ec:0a:20:fd:ea:f3:8b:88:50:56:
                    d1:60:58:75:a7:4a:b5:20:0b:b2:c1:31:ca:e7:d6:
                    89:ea:21:36:28:fa:66:86:20:b0:ff:30:1b:f2:50:
                    ef:1a:2d:b8:98:9e:cd:2e:a0:de:2e:c3:8a:63:c6:
                    63:2d:c7:54:27:f8:99:6e:98:21:f4:1b:a1:b2:9a:
                    ab:29:36:42:87:d0:1d:e0:c6:88:cb:38:c5:70:84:
                    2d:f4:43:c4:5c:98:66:af:d1
                Exponent: 65537 (0x10001)
        X509v3 extensions:
            X509v3 Basic Constraints: 
                CA:FALSE
            Netscape Comment: 
                OpenSSL Generated Certificate
            X509v3 Subject Key Identifier: 
                79:3B:25:C0:8D:4A:08:CE:E2:E0:18:CA:C2:C2:DD:3E:D9:AC:E5:0A
            X509v3 Authority Key Identifier: 
                DirName:/C=KR/CN=gilgil
                serial:BC:FE:EF:E9:4A:BC:63:F0

    Signature Algorithm: sha256WithRSAEncryption
         67:dc:75:5d:ae:0c:75:9d:39:91:98:47:8a:9d:2c:52:cc:fc:
         69:11:f9:da:33:b6:53:58:bf:f4:1d:90:03:62:fd:77:45:d9:
         00:77:7b:09:bb:26:97:c8:04:a8:46:01:15:ff:04:eb:28:c0:
         03:6c:1d:9b:20:d2:98:3a:7e:c1:96:4e:ac:22:a1:c5:25:35:
         45:9c:b5:60:98:78:18:56:8a:e6:72:99:75:c4:73:a9:14:2e:
         7c:1c:24:7a:3f:a8:51:b7:df:eb:9c:29:ba:61:6c:29:bf:58:
         34:ae:0a:05:8b:a3:2c:eb:3b:07:dd:46:13:89:bf:11:e5:85:
         d1:df
-----BEGIN CERTIFICATE-----
MIICYzCCAcygAwIBAgIBAjANBgkqhkiG9w0BAQsFADAeMQswCQYDVQQGEwJLUjEP
MA0GA1UEAwwGZ2lsZ2lsMCIYDzIwMTQwMzAxMDAwMDAwWhgPMjAyNDAyMjcwMDAw
MDBaMDUxCzAJBgNVBAYTAktSMSYwJAYDVQQDDB13ZWIudm9ydGV4LmRhdGEubWlj
cm9zb2Z0LmNvbTCBnzANBgkqhkiG9w0BAQEFAAOBjQAwgYkCgYEA2X7I9tL11g20
FkFXOk8k+mcZXp3qJHdITxukd2lCG6rWNOwKIP3q84uIUFbRYFh1p0q1IAuywTHK
59aJ6iE2KPpmhiCw/zAb8lDvGi24mJ7NLqDeLsOKY8ZjLcdUJ/iZbpgh9Buhspqr
KTZCh9Ad4MaIyzjFcIQt9EPEXJhmr9ECAwEAAaOBlTCBkjAJBgNVHRMEAjAAMCwG
CWCGSAGG+EIBDQQfFh1PcGVuU1NMIEdlbmVyYXRlZCBDZXJ0aWZpY2F0ZTAdBgNV
HQ4EFgQUeTslwI1KCM7i4BjKwsLdPtms5QowOAYDVR0jBDEwL6EipCAwHjELMAkG
A1UEBhMCS1IxDzANBgNVBAMMBmdpbGdpbIIJALz+7+lKvGPwMA0GCSqGSIb3DQEB
CwUAA4GBAGfcdV2uDHWdOZGYR4qdLFLM/GkR+doztlNYv/QdkANi/XdF2QB3ewm7
JpfIBKhGARX/BOsowANsHZsg0pg6fsGWTqwiocUlNUWctWCYeBhWiuZymXXEc6kU
LnwcJHo/qFG33+ucKbphbCm/WDSuCgWLoyzrOwfdRhOJvxHlhdHf
-----END CERTIFICATE-----
