-----BEGIN RSA PRIVATE KEY-----
MIICXQIBAAKBgQCnErXOrINlhncjK97Z7cARdwDpzXId8nU4YMCLi0gIRdidS99F
G6HT5enX3JDYqd6w98kJvZPNx1dUIFwwFCgikDn7mVh2gLdW5o/Ew0HeyzlG7VbX
4UlYfyvdxMSBQwxxp6NnBhWSPRacUkfHUY809aSiBrRwHZT2W4oODYzwZQIDAQAB
AoGAO8nhUBXCa+mj5u1DMd/4NQfORt0jsn3a3xMYtJdibrt4GkpVmyiZT/heJ8ah
+zdHHzN9OUQjiaeFo/B0rSv5dFioUXtIyfrgBVM0wmeGC8yA2W9t644Me+kErDFJ
dDkskrFRxkLsdrH4BED2x/s3ChZF9II+tiNHYnhNmJCyvV0CQQDdJiC6RKT+BJnt
ncV1Y1T7VwqpkyE28hJ5JFBZtNrO3zauXbPxZWSq7w3yx+9GT5GbBm1ChNTMqauv
8RJ01e+PAkEAwWb8SbUc82wJYMtAbv4lXLJkx6FRsqWrMX/Wnh3VsGN1szNugJnv
vbihhNoHJ7GrIh6COF4aMoZZLireg7tmywJBAL57ddsa/0ZwrikWKRs4aN1olp2D
RiuujCzeE3uBJKrlZpL/0NtO60u0Rr5kafuU06TE/105TpXOWzxbl/scvo8CQQCr
AD3thd+1Mz8PgGbWPIwYa/tDr1UnGehF+fxvDX4VWbuF2OHJf1JEc20MpCJTbHod
zs/guwN6zOMpOOpJm3cFAkA9qkH9ZGs7IP7g6oNaq7+WXL4cl7D+TL6A3fRQ38Qu
oWyjnzt88Hb7/3qTBI9dww+FNWby6/GVKgNOHJRRAeD1
-----END RSA PRIVATE KEY-----
Certificate:
    Data:
        Version: 3 (0x2)
        Serial Number: 6 (0x6)
    Signature Algorithm: sha256WithRSAEncryption
        Issuer: C=KR, CN=gilgil
        Validity
            Not Before: Mar  1 00:00:00 2014 GMT
            Not After : Feb 27 00:00:00 2024 GMT
        Subject: C=KR, CN=www.bing.com
        Subject Public Key Info:
            Public Key Algorithm: rsaEncryption
                Public-Key: (1024 bit)
                Modulus:
                    00:a7:12:b5:ce:ac:83:65:86:77:23:2b:de:d9:ed:
                    c0:11:77:00:e9:cd:72:1d:f2:75:38:60:c0:8b:8b:
                    48:08:45:d8:9d:4b:df:45:1b:a1:d3:e5:e9:d7:dc:
                    90:d8:a9:de:b0:f7:c9:09:bd:93:cd:c7:57:54:20:
                    5c:30:14:28:22:90:39:fb:99:58:76:80:b7:56:e6:
                    8f:c4:c3:41:de:cb:39:46:ed:56:d7:e1:49:58:7f:
                    2b:dd:c4:c4:81:43:0c:71:a7:a3:67:06:15:92:3d:
                    16:9c:52:47:c7:51:8f:34:f5:a4:a2:06:b4:70:1d:
                    94:f6:5b:8a:0e:0d:8c:f0:65
                Exponent: 65537 (0x10001)
        X509v3 extensions:
            X509v3 Basic Constraints: 
                CA:FALSE
            Netscape Comment: 
                OpenSSL Generated Certificate
            X509v3 Subject Key Identifier: 
                9B:C2:81:95:E9:78:FF:6E:69:F8:70:1B:77:E8:CF:10:E0:3C:E6:63
            X509v3 Authority Key Identifier: 
                DirName:/C=KR/CN=gilgil
                serial:BC:FE:EF:E9:4A:BC:63:F0

    Signature Algorithm: sha256WithRSAEncryption
         59:c2:07:29:af:47:7f:48:25:56:4f:75:62:a6:34:98:98:84:
         d8:4e:be:ec:bd:11:27:c1:47:94:b2:f4:56:10:e4:89:d9:fe:
         29:b0:61:87:11:f8:bc:e8:0b:50:74:4a:c9:61:38:ee:b5:2a:
         6c:ac:e1:e7:d2:2e:63:ba:9d:70:a2:84:db:e7:74:0d:ab:63:
         ca:3d:51:4c:53:a3:e8:99:be:81:1a:b7:80:07:af:42:bc:74:
         a1:c8:74:22:da:23:dd:82:d2:71:dc:12:f0:6e:49:c9:44:44:
         2b:eb:95:94:ce:a4:ef:bc:7e:11:6b:40:e5:67:bc:57:42:35:
         67:64
-----BEGIN CERTIFICATE-----
MIICUjCCAbugAwIBAgIBBjANBgkqhkiG9w0BAQsFADAeMQswCQYDVQQGEwJLUjEP
MA0GA1UEAwwGZ2lsZ2lsMCIYDzIwMTQwMzAxMDAwMDAwWhgPMjAyNDAyMjcwMDAw
MDBaMCQxCzAJBgNVBAYTAktSMRUwEwYDVQQDDAx3d3cuYmluZy5jb20wgZ8wDQYJ
KoZIhvcNAQEBBQADgY0AMIGJAoGBAKcStc6sg2WGdyMr3tntwBF3AOnNch3ydThg
wIuLSAhF2J1L30UbodPl6dfckNip3rD3yQm9k83HV1QgXDAUKCKQOfuZWHaAt1bm
j8TDQd7LOUbtVtfhSVh/K93ExIFDDHGno2cGFZI9FpxSR8dRjzT1pKIGtHAdlPZb
ig4NjPBlAgMBAAGjgZUwgZIwCQYDVR0TBAIwADAsBglghkgBhvhCAQ0EHxYdT3Bl
blNTTCBHZW5lcmF0ZWQgQ2VydGlmaWNhdGUwHQYDVR0OBBYEFJvCgZXpeP9uafhw
G3fozxDgPOZjMDgGA1UdIwQxMC+hIqQgMB4xCzAJBgNVBAYTAktSMQ8wDQYDVQQD
DAZnaWxnaWyCCQC8/u/pSrxj8DANBgkqhkiG9w0BAQsFAAOBgQBZwgcpr0d/SCVW
T3VipjSYmITYTr7svREnwUeUsvRWEOSJ2f4psGGHEfi86AtQdErJYTjutSpsrOHn
0i5jup1wooTb53QNq2PKPVFMU6Pomb6BGreAB69CvHShyHQi2iPdgtJx3BLwbknJ
REQr65WUzqTvvH4Ra0DlZ7xXQjVnZA==
-----END CERTIFICATE-----
