-----BEGIN RSA PRIVATE KEY-----
MIICXQIBAAKBgQDFsazQWIjAyZYflS+hmSbWJLpUd81ltRvO1O9i2So+MAOC3z+w
xnyRoLr8pE6x0+0X1MdQpY/of6tLcTsIpWEULUNBQptzT48vJTPN9Eo3BOWzo2l/
Hqd5IhadZL7rcDRo4CPyGi6QucH26zMaW5YjMJ54Q1GT2mwd42pvdSTkRQIDAQAB
AoGBAMRDo0RoUMPMndyW+GWfLT410kJfeau6hHPvVAU3gcehVSsNRibStwLApkKB
QJsswVoCZSn8ZAU3EjDgpfHsdZWYgytUEbH1LsyAXrTJKN5mCiOpbrTKaBWYlROs
Fj83JrixleH/sCDH/Df4g46/T8rY3ZUlVW3p9EebOQsv5921AkEA+HAreSNFw3es
N3GE7s6rruGP3p4qH2McOSiFzr3dcw3v7lqjLLsj5xJ7tx8fEFh+bWj86jYzxZBC
KHTsQ0m1VwJBAMu2G2ecWFhKCptGrXs7c1rMcCZZNeq6ikINFZgpHranSBg4vz5m
3ib3M8NZKt1D6C0bt7vDFLIwW0smRuJ5dcMCQFo4ohED9jneI/SejSAMfdysnYrC
9ZkgbQd05+MEoH8/+HofAFMmQwuPcs41xxowiPlCv1ZvCK4ejWgTzhlBk1ECQQCI
7odrVR/ZcSPCDndMj8DRtvxn+q2QdAW9snfiiTl5A+clSPfcpV8NCDwGQujaROxL
bgdKMi62PGURldAuKgDrAkB8h001PO5rmlOKf3CPPfFv1COQMnjfG5n3xKQWvX/8
jEqXKdmOkVDWOoIN46GhwLP/Y6ck12imfmfT5q6B90gF
-----END RSA PRIVATE KEY-----
Certificate:
    Data:
        Version: 3 (0x2)
        Serial Number: 1 (0x1)
    Signature Algorithm: sha256WithRSAEncryption
        Issuer: C=KR, CN=gilgil
        Validity
            Not Before: Mar  1 00:00:00 2014 GMT
            Not After : Feb 27 00:00:00 2024 GMT
        Subject: C=KR, CN=www.microsoft.com
        Subject Public Key Info:
            Public Key Algorithm: rsaEncryption
                Public-Key: (1024 bit)
                Modulus:
                    00:c5:b1:ac:d0:58:88:c0:c9:96:1f:95:2f:a1:99:
                    26:d6:24:ba:54:77:cd:65:b5:1b:ce:d4:ef:62:d9:
                    2a:3e:30:03:82:df:3f:b0:c6:7c:91:a0:ba:fc:a4:
                    4e:b1:d3:ed:17:d4:c7:50:a5:8f:e8:7f:ab:4b:71:
                    3b:08:a5:61:14:2d:43:41:42:9b:73:4f:8f:2f:25:
                    33:cd:f4:4a:37:04:e5:b3:a3:69:7f:1e:a7:79:22:
                    16:9d:64:be:eb:70:34:68:e0:23:f2:1a:2e:90:b9:
                    c1:f6:eb:33:1a:5b:96:23:30:9e:78:43:51:93:da:
                    6c:1d:e3:6a:6f:75:24:e4:45
                Exponent: 65537 (0x10001)
        X509v3 extensions:
            X509v3 Basic Constraints: 
                CA:FALSE
            Netscape Comment: 
                OpenSSL Generated Certificate
            X509v3 Subject Key Identifier: 
                E4:9A:61:B8:04:D1:09:3E:AF:EF:9B:D1:95:2D:90:BE:9D:CF:AE:E6
            X509v3 Authority Key Identifier: 
                DirName:/C=KR/CN=gilgil
                serial:BC:FE:EF:E9:4A:BC:63:F0

    Signature Algorithm: sha256WithRSAEncryption
         6a:b4:9d:2e:3d:52:18:e1:bb:f8:5a:a0:0f:bc:54:d9:6f:6e:
         da:c1:a1:26:a5:6e:b7:f2:d9:21:6b:09:2b:9e:3d:11:8b:cc:
         14:b1:01:45:5d:1a:04:08:ca:f6:dc:85:6c:52:33:36:21:9f:
         36:46:f5:08:95:e0:eb:3a:48:0c:94:38:7a:f0:64:bb:5c:2c:
         03:0d:cf:08:84:ce:1d:78:1e:9d:ab:28:21:f0:b1:40:bd:e9:
         b9:c8:81:e9:a1:e6:1d:ec:e9:0b:c4:22:cf:0d:a3:77:bf:cd:
         7b:24:20:e8:06:1e:da:01:40:aa:fc:d5:ac:d1:87:dd:a9:3b:
         1a:a7
-----BEGIN CERTIFICATE-----
MIICVzCCAcCgAwIBAgIBATANBgkqhkiG9w0BAQsFADAeMQswCQYDVQQGEwJLUjEP
MA0GA1UEAwwGZ2lsZ2lsMCIYDzIwMTQwMzAxMDAwMDAwWhgPMjAyNDAyMjcwMDAw
MDBaMCkxCzAJBgNVBAYTAktSMRowGAYDVQQDDBF3d3cubWljcm9zb2Z0LmNvbTCB
nzANBgkqhkiG9w0BAQEFAAOBjQAwgYkCgYEAxbGs0FiIwMmWH5UvoZkm1iS6VHfN
ZbUbztTvYtkqPjADgt8/sMZ8kaC6/KROsdPtF9THUKWP6H+rS3E7CKVhFC1DQUKb
c0+PLyUzzfRKNwTls6Npfx6neSIWnWS+63A0aOAj8houkLnB9uszGluWIzCeeENR
k9psHeNqb3Uk5EUCAwEAAaOBlTCBkjAJBgNVHRMEAjAAMCwGCWCGSAGG+EIBDQQf
Fh1PcGVuU1NMIEdlbmVyYXRlZCBDZXJ0aWZpY2F0ZTAdBgNVHQ4EFgQU5JphuATR
CT6v75vRlS2Qvp3PruYwOAYDVR0jBDEwL6EipCAwHjELMAkGA1UEBhMCS1IxDzAN
BgNVBAMMBmdpbGdpbIIJALz+7+lKvGPwMA0GCSqGSIb3DQEBCwUAA4GBAGq0nS49
Uhjhu/haoA+8VNlvbtrBoSalbrfy2SFrCSuePRGLzBSxAUVdGgQIyvbchWxSMzYh
nzZG9QiV4Os6SAyUOHrwZLtcLAMNzwiEzh14Hp2rKCHwsUC96bnIgemh5h3s6QvE
Is8No3e/zXskIOgGHtoBQKr81azRh92pOxqn
-----END CERTIFICATE-----
