-----BEGIN RSA PRIVATE KEY-----
MIICXAIBAAKBgQC/wfrQDqd2oklJjggjDEe4jqIZ9oZPQmGB6VOYdPNCvcH2hF8d
u5jzv7QlFq07v3F5xWLYJc0Z0P3M7bTXyOGFLagzykxlSe5Ezfu3bqB/jGlC9kuv
QTSExSIdYIYDGdCOa5235ztbN8XavB+AAmj1I0nO3sOEpo3JvOhFO4c+ZwIDAQAB
AoGAOh15/BBU5HluqKIpCSYxnldr/V5feinuD0c9lJjtGK8V17ZqdUJjqovQ9uSW
f+MXawZNXKCoNkjGgpMQGc3BuupiuJKLFtMoA9eKTizcEpJrJdAR4Lyn5Kt0xl0C
OU8nGDbYyoxnabMisSGd0fVUQ6qczmShQn1vQId1l24gsSECQQDuObRoPamGgb4O
oLjah5FKZ8mxrqOkM40U9teK6wlG9tIihTtZgc5GOTSqtAMEnp/zvlq8a8cVYDj+
vIjXoHJPAkEAzhC0kn+fdMPMHxexLacnjkKjHZb6J6EH78UrQpzGttMk/vionkzr
2cBbDOwZeVc/Xci9jolzmfi4o0hw4/bkaQJAVZ8x42F+Q9Tv/YvwxMKDCu4gxRcS
w9qvc4CA2fI+JF5kCno+aZ5JCF5ZOp12lDt7G/0n2Z8XL+ykr5IN0Qpe6wJAX9fh
ROpbLiILhMKuQ/+lJEPWPmMEgv4hBOJ+FoN44Xwfjv/03XwFjsgrET2XM5ri/Cns
EKnZvNm0dy2wZDdnUQJBALoyEs8djh3hHRoWgk6dIbvszZT487YjdniJ8rPevyQJ
i0mhOl9gQHNNBm8fmeIej8qYufEzKOX/hJNKERmYBrs=
-----END RSA PRIVATE KEY-----
Certificate:
    Data:
        Version: 3 (0x2)
        Serial Number: 4 (0x4)
    Signature Algorithm: sha256WithRSAEncryption
        Issuer: C=KR, CN=gilgil
        Validity
            Not Before: Mar  1 00:00:00 2014 GMT
            Not After : Feb 27 00:00:00 2024 GMT
        Subject: C=KR, CN=www.naver.com
        Subject Public Key Info:
            Public Key Algorithm: rsaEncryption
                Public-Key: (1024 bit)
                Modulus:
                    00:bf:c1:fa:d0:0e:a7:76:a2:49:49:8e:08:23:0c:
                    47:b8:8e:a2:19:f6:86:4f:42:61:81:e9:53:98:74:
                    f3:42:bd:c1:f6:84:5f:1d:bb:98:f3:bf:b4:25:16:
                    ad:3b:bf:71:79:c5:62:d8:25:cd:19:d0:fd:cc:ed:
                    b4:d7:c8:e1:85:2d:a8:33:ca:4c:65:49:ee:44:cd:
                    fb:b7:6e:a0:7f:8c:69:42:f6:4b:af:41:34:84:c5:
                    22:1d:60:86:03:19:d0:8e:6b:9d:b7:e7:3b:5b:37:
                    c5:da:bc:1f:80:02:68:f5:23:49:ce:de:c3:84:a6:
                    8d:c9:bc:e8:45:3b:87:3e:67
                Exponent: 65537 (0x10001)
        X509v3 extensions:
            X509v3 Basic Constraints: 
                CA:FALSE
            Netscape Comment: 
                OpenSSL Generated Certificate
            X509v3 Subject Key Identifier: 
                6E:C0:60:C9:BF:51:FE:B4:0A:2F:0C:D7:53:74:F8:BD:86:02:2B:A1
            X509v3 Authority Key Identifier: 
                DirName:/C=KR/CN=gilgil
                serial:BC:FE:EF:E9:4A:BC:63:F0

    Signature Algorithm: sha256WithRSAEncryption
         81:96:ef:cf:a2:4a:89:90:ea:a8:eb:ed:44:eb:57:28:8c:13:
         12:4e:36:14:b5:a9:6d:7a:d8:2f:e3:3a:59:1c:05:78:2b:b7:
         77:74:0f:cf:d7:67:5f:02:67:7c:8f:e3:e1:90:85:41:0c:9d:
         32:36:5d:6d:93:26:19:69:c7:71:45:4c:0e:17:30:d0:67:89:
         27:ea:61:95:af:69:b9:f6:9d:e4:07:56:13:d5:6e:72:a4:e3:
         64:be:ea:5d:13:c0:6f:cf:32:e5:cf:38:57:a0:49:09:e8:22:
         64:40:01:eb:10:9e:04:6c:15:8d:81:cf:f6:b5:e9:48:42:c2:
         9a:0a
-----BEGIN CERTIFICATE-----
MIICUzCCAbygAwIBAgIBBDANBgkqhkiG9w0BAQsFADAeMQswCQYDVQQGEwJLUjEP
MA0GA1UEAwwGZ2lsZ2lsMCIYDzIwMTQwMzAxMDAwMDAwWhgPMjAyNDAyMjcwMDAw
MDBaMCUxCzAJBgNVBAYTAktSMRYwFAYDVQQDDA13d3cubmF2ZXIuY29tMIGfMA0G
CSqGSIb3DQEBAQUAA4GNADCBiQKBgQC/wfrQDqd2oklJjggjDEe4jqIZ9oZPQmGB
6VOYdPNCvcH2hF8du5jzv7QlFq07v3F5xWLYJc0Z0P3M7bTXyOGFLagzykxlSe5E
zfu3bqB/jGlC9kuvQTSExSIdYIYDGdCOa5235ztbN8XavB+AAmj1I0nO3sOEpo3J
vOhFO4c+ZwIDAQABo4GVMIGSMAkGA1UdEwQCMAAwLAYJYIZIAYb4QgENBB8WHU9w
ZW5TU0wgR2VuZXJhdGVkIENlcnRpZmljYXRlMB0GA1UdDgQWBBRuwGDJv1H+tAov
DNdTdPi9hgIroTA4BgNVHSMEMTAvoSKkIDAeMQswCQYDVQQGEwJLUjEPMA0GA1UE
AwwGZ2lsZ2lsggkAvP7v6Uq8Y/AwDQYJKoZIhvcNAQELBQADgYEAgZbvz6JKiZDq
qOvtROtXKIwTEk42FLWpbXrYL+M6WRwFeCu3d3QPz9dnXwJnfI/j4ZCFQQydMjZd
bZMmGWnHcUVMDhcw0GeJJ+phla9pufad5AdWE9VucqTjZL7qXRPAb88y5c84V6BJ
CegiZEAB6xCeBGwVjYHP9rXpSELCmgo=
-----END CERTIFICATE-----
