-----BEGIN RSA PRIVATE KEY-----
MIICWwIBAAKBgQDBiyrbQaL1mPBVOrD6XG6t0l3uPx4dq1K8TmsEDwPBVFElgi6z
WJphPLWP/d/wtnfHZUE+RueJvSH+iHk+XVmBVWATZIbEsDMSlFKD7S+HS7/cwZah
fnuLZtKrW44KC+WjsFW02tvPrYSxbmMBCLY7GBNDMoaJmglkPwWPaJuhZQIDAQAB
AoGACMAVAPK3vmjavM+5fqg9LMitDH94Chlb1T2qYvWW0t/QB2UaXWttF2ZaQxdU
T5rAUZiHWZx1DWoqpkpfSO2JhVYiTKyncceCPBN6GbWoS1lMiKg29krXLqTfxtlk
QWTVsQo10uXOhFOMGdr2qR9BgSP0+Q3NkoZW/eGcRS7da4ECQQD7qP8n0IeqrMUA
ppDzZUSBr4fqnhFrvOCng8O7OnjBIHMOsXAZMxVvK8RigJrksafZbaSDlw5982OQ
ZdyCvhdFAkEAxOGal2ujfqeaPNNUtr6CljwNlRTbmlmf8Uv9uteEaSzhJyPIuDSu
qRl5cGh7kyi9+OnJpJmScev+YjvtCF9zoQJAa0QHLdNGYEsv1S0qD3SUlKpaxngF
eOSS5RPWs9Eicz7/i725yCPr+Oyw0kN6wguvPY/sVWJnfOvm/j9MlDWt+QJARZl7
jQwAQEX/wID08aVnhLS2GH3HJEmKwUKb7/FAXe3/qlZ8HqKBHEZlJ9fH174Pam87
WXTw0FUdGJ0Wrl8QAQJACpVLogDU9o7UDPgapQ6J1tNPp2d5zSqa7cdYdiWeJ4aD
OBcFS7QnqV5ezlym0njlYh7w4d0+R08oPg26wRpI7A==
-----END RSA PRIVATE KEY-----
Certificate:
    Data:
        Version: 3 (0x2)
        Serial Number: 1 (0x1)
    Signature Algorithm: sha256WithRSAEncryption
        Issuer: C=KR, CN=gilgil
        Validity
            Not Before: Mar  1 00:00:00 2014 GMT
            Not After : Feb 27 00:00:00 2024 GMT
        Subject: C=KR, CN=www.msn.com
        Subject Public Key Info:
            Public Key Algorithm: rsaEncryption
                Public-Key: (1024 bit)
                Modulus:
                    00:c1:8b:2a:db:41:a2:f5:98:f0:55:3a:b0:fa:5c:
                    6e:ad:d2:5d:ee:3f:1e:1d:ab:52:bc:4e:6b:04:0f:
                    03:c1:54:51:25:82:2e:b3:58:9a:61:3c:b5:8f:fd:
                    df:f0:b6:77:c7:65:41:3e:46:e7:89:bd:21:fe:88:
                    79:3e:5d:59:81:55:60:13:64:86:c4:b0:33:12:94:
                    52:83:ed:2f:87:4b:bf:dc:c1:96:a1:7e:7b:8b:66:
                    d2:ab:5b:8e:0a:0b:e5:a3:b0:55:b4:da:db:cf:ad:
                    84:b1:6e:63:01:08:b6:3b:18:13:43:32:86:89:9a:
                    09:64:3f:05:8f:68:9b:a1:65
                Exponent: 65537 (0x10001)
        X509v3 extensions:
            X509v3 Basic Constraints: 
                CA:FALSE
            Netscape Comment: 
                OpenSSL Generated Certificate
            X509v3 Subject Key Identifier: 
                2F:80:BB:46:23:A3:BD:66:DF:BB:76:45:FE:6A:7E:A8:D8:1A:62:4F
            X509v3 Authority Key Identifier: 
                DirName:/C=KR/CN=gilgil
                serial:BC:FE:EF:E9:4A:BC:63:F0

    Signature Algorithm: sha256WithRSAEncryption
         6d:95:f5:b4:27:fa:1f:24:9a:d2:bb:3e:ab:2c:f7:a6:c8:a1:
         19:86:17:3e:83:67:2b:47:a4:3d:81:fd:89:04:25:20:59:e7:
         5e:3f:dc:7a:b4:83:07:36:a6:2a:38:82:46:99:3e:5f:fe:56:
         89:72:7e:29:83:ae:3c:9e:76:18:80:a8:ca:8f:b3:4a:8a:47:
         03:9b:6a:09:b2:83:f6:04:9a:4b:3a:3e:d9:27:34:7e:37:9a:
         a5:55:a4:f5:00:ca:64:3e:5a:88:bc:c5:13:d6:90:8a:c5:3b:
         66:a9:87:62:2a:d4:8a:cd:05:f3:ce:13:e5:a6:c5:dd:d5:1e:
         cf:ad
-----BEGIN CERTIFICATE-----
MIICUTCCAbqgAwIBAgIBATANBgkqhkiG9w0BAQsFADAeMQswCQYDVQQGEwJLUjEP
MA0GA1UEAwwGZ2lsZ2lsMCIYDzIwMTQwMzAxMDAwMDAwWhgPMjAyNDAyMjcwMDAw
MDBaMCMxCzAJBgNVBAYTAktSMRQwEgYDVQQDDAt3d3cubXNuLmNvbTCBnzANBgkq
hkiG9w0BAQEFAAOBjQAwgYkCgYEAwYsq20Gi9ZjwVTqw+lxurdJd7j8eHatSvE5r
BA8DwVRRJYIus1iaYTy1j/3f8LZ3x2VBPkbnib0h/oh5Pl1ZgVVgE2SGxLAzEpRS
g+0vh0u/3MGWoX57i2bSq1uOCgvlo7BVtNrbz62EsW5jAQi2OxgTQzKGiZoJZD8F
j2iboWUCAwEAAaOBlTCBkjAJBgNVHRMEAjAAMCwGCWCGSAGG+EIBDQQfFh1PcGVu
U1NMIEdlbmVyYXRlZCBDZXJ0aWZpY2F0ZTAdBgNVHQ4EFgQUL4C7RiOjvWbfu3ZF
/mp+qNgaYk8wOAYDVR0jBDEwL6EipCAwHjELMAkGA1UEBhMCS1IxDzANBgNVBAMM
BmdpbGdpbIIJALz+7+lKvGPwMA0GCSqGSIb3DQEBCwUAA4GBAG2V9bQn+h8kmtK7
Pqss96bIoRmGFz6DZytHpD2B/YkEJSBZ514/3Hq0gwc2pio4gkaZPl/+VolyfimD
rjyedhiAqMqPs0qKRwObagmyg/YEmks6PtknNH43mqVVpPUAymQ+Woi8xRPWkIrF
O2aph2Iq1IrNBfPOE+Wmxd3VHs+t
-----END CERTIFICATE-----
