-----BEGIN RSA PRIVATE KEY-----
MIICXQIBAAKBgQDGj1CqGKKLnd9ReIVBg7ibzpuxUIfoeFrHhefd4C85lM6S0QW2
GCSdT29tO64JxpmpC1BgzaZJ/CZ1qUwhwx68HjgpJwl16tbTCnPNT2tL5qx1/fHG
+Zaz4r83xPUqlEB02ke1MMap3qE+psm0rmZm9FBMnNhwZzHuo5K28AcVHwIDAQAB
AoGBAMKwFRSjEQW6ZxQYCvjA8cr7mxcR8iCTmdcWydF4lnVsHdxAzMvOAmCoWYYO
RUhajaH9cPNp0QmsDf3CYN6d1cw9tJihtXHHPtfz8wHRv9lvYpqWMm+avI0sUOEQ
U5NDZmeKEofwEUM3Hzzt5Njw0px8HbkSTzXIv8YNvg1t6PqBAkEA6FqmBD1RzU+4
gFKtpkzolhpGloyicDOuNsVqAFWJadRimGKdoqa2nxCIHJXNbDIxwrP3U1uig+Ks
Wl3dorffXwJBANrEP8d/pAXggUzv63LqVn1ckwFvhHzYTcvi7kqnkzXVU1sl/kqA
bTeYgVvJmB/J/AOn478VHpXkhg7BKxVLYkECQFu57XAfBPwYTK3b9dGA6xDWrqcg
PcAtpsjYhlA7dFPjFEk0JSbgyZdh31npiX79EcfbY/f0ZOPLyF6kT6q9C+ECQHuJ
0X6GTQjok/vvjGVzge3/JiDsacPanmwhtXFBGnePBSh21xgZWBPKMlq0CA0DkiY6
W/kfIwuAZlfUq9C1pkECQQDghItfoid2F6XINa2NbHXOANecO60d9aud6Wg8Ptds
RVXtDj0QoXit5wSadcOI6RDKUYiVrTj+P6+X71642Hly
-----END RSA PRIVATE KEY-----
Certificate:
    Data:
        Version: 3 (0x2)
        Serial Number: 5 (0x5)
    Signature Algorithm: sha256WithRSAEncryption
        Issuer: C=KR, CN=gilgil
        Validity
            Not Before: Mar  1 00:00:00 2014 GMT
            Not After : Feb 27 00:00:00 2024 GMT
        Subject: C=KR, CN=www.google.com
        Subject Public Key Info:
            Public Key Algorithm: rsaEncryption
                Public-Key: (1024 bit)
                Modulus:
                    00:c6:8f:50:aa:18:a2:8b:9d:df:51:78:85:41:83:
                    b8:9b:ce:9b:b1:50:87:e8:78:5a:c7:85:e7:dd:e0:
                    2f:39:94:ce:92:d1:05:b6:18:24:9d:4f:6f:6d:3b:
                    ae:09:c6:99:a9:0b:50:60:cd:a6:49:fc:26:75:a9:
                    4c:21:c3:1e:bc:1e:38:29:27:09:75:ea:d6:d3:0a:
                    73:cd:4f:6b:4b:e6:ac:75:fd:f1:c6:f9:96:b3:e2:
                    bf:37:c4:f5:2a:94:40:74:da:47:b5:30:c6:a9:de:
                    a1:3e:a6:c9:b4:ae:66:66:f4:50:4c:9c:d8:70:67:
                    31:ee:a3:92:b6:f0:07:15:1f
                Exponent: 65537 (0x10001)
        X509v3 extensions:
            X509v3 Basic Constraints: 
                CA:FALSE
            Netscape Comment: 
                OpenSSL Generated Certificate
            X509v3 Subject Key Identifier: 
                76:6C:6B:D4:CB:43:B5:7C:50:0A:33:93:78:41:1E:55:F5:89:93:46
            X509v3 Authority Key Identifier: 
                DirName:/C=KR/CN=gilgil
                serial:BC:FE:EF:E9:4A:BC:63:F0

    Signature Algorithm: sha256WithRSAEncryption
         0a:6a:8f:6a:69:5a:2b:18:94:e9:f3:d4:41:74:f2:9b:49:34:
         ad:c5:df:5d:4b:84:cb:72:e3:fa:c5:2a:da:b0:a4:ce:2a:5d:
         06:1a:75:95:3a:d7:d3:83:bf:74:29:2a:2a:14:76:a4:96:5b:
         32:25:f0:e1:4e:b5:c9:26:18:02:d5:c7:38:cb:ca:d5:d4:36:
         af:a8:3a:3f:10:2c:4c:3a:10:d6:10:f6:04:cb:b7:9d:16:29:
         fa:d2:d6:9f:94:f8:74:50:8a:8c:c0:fb:53:50:20:af:9c:0b:
         57:ac:18:b4:db:02:89:70:7d:83:a2:2f:f5:f7:82:ee:63:25:
         83:33
-----BEGIN CERTIFICATE-----
MIICVDCCAb2gAwIBAgIBBTANBgkqhkiG9w0BAQsFADAeMQswCQYDVQQGEwJLUjEP
MA0GA1UEAwwGZ2lsZ2lsMCIYDzIwMTQwMzAxMDAwMDAwWhgPMjAyNDAyMjcwMDAw
MDBaMCYxCzAJBgNVBAYTAktSMRcwFQYDVQQDDA53d3cuZ29vZ2xlLmNvbTCBnzAN
BgkqhkiG9w0BAQEFAAOBjQAwgYkCgYEAxo9Qqhiii53fUXiFQYO4m86bsVCH6Hha
x4Xn3eAvOZTOktEFthgknU9vbTuuCcaZqQtQYM2mSfwmdalMIcMevB44KScJderW
0wpzzU9rS+asdf3xxvmWs+K/N8T1KpRAdNpHtTDGqd6hPqbJtK5mZvRQTJzYcGcx
7qOStvAHFR8CAwEAAaOBlTCBkjAJBgNVHRMEAjAAMCwGCWCGSAGG+EIBDQQfFh1P
cGVuU1NMIEdlbmVyYXRlZCBDZXJ0aWZpY2F0ZTAdBgNVHQ4EFgQUdmxr1MtDtXxQ
CjOTeEEeVfWJk0YwOAYDVR0jBDEwL6EipCAwHjELMAkGA1UEBhMCS1IxDzANBgNV
BAMMBmdpbGdpbIIJALz+7+lKvGPwMA0GCSqGSIb3DQEBCwUAA4GBAApqj2ppWisY
lOnz1EF08ptJNK3F311LhMty4/rFKtqwpM4qXQYadZU619ODv3QpKioUdqSWWzIl
8OFOtckmGALVxzjLytXUNq+oOj8QLEw6ENYQ9gTLt50WKfrS1p+U+HRQiozA+1NQ
IK+cC1esGLTbAolwfYOiL/X3gu5jJYMz
-----END CERTIFICATE-----
