-----BEGIN RSA PRIVATE KEY-----
MIICXQIBAAKBgQC54RqYuR5JBZkGKvsnfh4ktycv36je7SQD8Ow3JVVB8b0eKEYI
+xg9Gm715K8Xa5BlWBMTO0+ViB531alFfbK0iHwgUwHy/jKZqO8FQ98Mi0mnjOzK
AJcy4owCUo+++Ea4c9N1LPmpTdjOxTtj44DTP+3UMuBEgs894AZYlTviLQIDAQAB
AoGBAIOucQUYv9fDW3D/KgYEVp50EhLcQ+oJ3aXdG7rFe+zHsM6YgWUDXVyMSWdx
pojU7uqcxoatUegBEnSarNxJ/Dqp1aqzwzkhulxM2eXzECZfyvof666Gz2N8q970
c70h50/NZOeb0ZBm+15N/A0CWrs7Pmyk+D0HcHv/XgcdYEkRAkEA9gT6wl5Tqpdn
lanGrl5RPbpaV/IhDwazMo6a2kH0ZrmftytwuCFa1DZ+QONn9B67WeIWBSfGJvlY
OUicDNCVvwJBAMFriuF8DLIB2n8h8KJOPQM5ieNc/hvbTIScJAtEldizQ/vzwEGg
EDsm0VvQgHRKv+4FWOym0OSM2hKrnXWyexMCQAbJfGGAWK6MHr9yP5jv4S3ixjtG
4sKXXLo4VO1QhH2RAWb8O8/Ym7jfB/yiSWvirSh9pD3gKwdIObba2fNAjeECQFUU
lTaydnMm1ZHuwAblG3l7qefVVAG06We7ty8tsCxuTo1Zn0w+uGUMojMc+CQvbVWq
DH+ssV6XhqWHz++h3vkCQQDxG53Mybzcw40sQqbhUhGRHGMmGxca2PXg+GyDsJZq
cRc/7VGQtOUgPJGHswQK4TCnU3PfrapFS58yoGwNXgQm
-----END RSA PRIVATE KEY-----
Certificate:
    Data:
        Version: 3 (0x2)
        Serial Number: 5 (0x5)
    Signature Algorithm: sha256WithRSAEncryption
        Issuer: C=KR, CN=gilgil
        Validity
            Not Before: Mar  1 00:00:00 2014 GMT
            Not After : Feb 27 00:00:00 2024 GMT
        Subject: C=KR, CN=www.bizographics.com
        Subject Public Key Info:
            Public Key Algorithm: rsaEncryption
                Public-Key: (1024 bit)
                Modulus:
                    00:b9:e1:1a:98:b9:1e:49:05:99:06:2a:fb:27:7e:
                    1e:24:b7:27:2f:df:a8:de:ed:24:03:f0:ec:37:25:
                    55:41:f1:bd:1e:28:46:08:fb:18:3d:1a:6e:f5:e4:
                    af:17:6b:90:65:58:13:13:3b:4f:95:88:1e:77:d5:
                    a9:45:7d:b2:b4:88:7c:20:53:01:f2:fe:32:99:a8:
                    ef:05:43:df:0c:8b:49:a7:8c:ec:ca:00:97:32:e2:
                    8c:02:52:8f:be:f8:46:b8:73:d3:75:2c:f9:a9:4d:
                    d8:ce:c5:3b:63:e3:80:d3:3f:ed:d4:32:e0:44:82:
                    cf:3d:e0:06:58:95:3b:e2:2d
                Exponent: 65537 (0x10001)
        X509v3 extensions:
            X509v3 Basic Constraints: 
                CA:FALSE
            Netscape Comment: 
                OpenSSL Generated Certificate
            X509v3 Subject Key Identifier: 
                8E:A7:53:B5:B7:0E:C5:63:04:62:67:59:76:83:93:B4:04:32:5C:6A
            X509v3 Authority Key Identifier: 
                DirName:/C=KR/CN=gilgil
                serial:BC:FE:EF:E9:4A:BC:63:F0

    Signature Algorithm: sha256WithRSAEncryption
         33:c5:96:91:24:b3:b9:8f:64:f7:ed:a5:00:c9:22:d9:63:88:
         f3:be:10:fa:68:74:ed:3a:02:63:4e:a3:1f:ca:7f:44:87:8b:
         10:09:42:b8:5d:d4:4a:cb:63:dc:69:0d:50:87:0f:6f:0d:22:
         5a:69:91:ff:01:a6:8b:6c:11:a7:8b:c0:ba:24:c5:34:76:f0:
         fd:86:c0:07:9e:3d:62:d4:51:8c:91:ec:16:bb:c0:0e:75:f3:
         75:2d:b1:05:0c:52:8d:d1:6d:2b:fe:40:fe:9c:45:92:3b:e1:
         12:1a:a1:e8:ff:b1:3e:7c:dd:d5:41:44:43:fa:f1:d2:e6:50:
         58:bd
-----BEGIN CERTIFICATE-----
MIICWjCCAcOgAwIBAgIBBTANBgkqhkiG9w0BAQsFADAeMQswCQYDVQQGEwJLUjEP
MA0GA1UEAwwGZ2lsZ2lsMCIYDzIwMTQwMzAxMDAwMDAwWhgPMjAyNDAyMjcwMDAw
MDBaMCwxCzAJBgNVBAYTAktSMR0wGwYDVQQDDBR3d3cuYml6b2dyYXBoaWNzLmNv
bTCBnzANBgkqhkiG9w0BAQEFAAOBjQAwgYkCgYEAueEamLkeSQWZBir7J34eJLcn
L9+o3u0kA/DsNyVVQfG9HihGCPsYPRpu9eSvF2uQZVgTEztPlYged9WpRX2ytIh8
IFMB8v4ymajvBUPfDItJp4zsygCXMuKMAlKPvvhGuHPTdSz5qU3YzsU7Y+OA0z/t
1DLgRILPPeAGWJU74i0CAwEAAaOBlTCBkjAJBgNVHRMEAjAAMCwGCWCGSAGG+EIB
DQQfFh1PcGVuU1NMIEdlbmVyYXRlZCBDZXJ0aWZpY2F0ZTAdBgNVHQ4EFgQUjqdT
tbcOxWMEYmdZdoOTtAQyXGowOAYDVR0jBDEwL6EipCAwHjELMAkGA1UEBhMCS1Ix
DzANBgNVBAMMBmdpbGdpbIIJALz+7+lKvGPwMA0GCSqGSIb3DQEBCwUAA4GBADPF
lpEks7mPZPftpQDJItljiPO+EPpodO06AmNOox/Kf0SHixAJQrhd1ErLY9xpDVCH
D28NIlppkf8BpotsEaeLwLokxTR28P2GwAeePWLUUYyR7Ba7wA5183UtsQUMUo3R
bSv+QP6cRZI74RIaoej/sT583dVBREP68dLmUFi9
-----END CERTIFICATE-----
